
build/acs_f4_pwmthreads.elf:     file format elf32-littlearm


Disassembly of section .text:

080001c0 <Reset_Handler>:
 80001c0:	b672      	cpsid	i
 80001c2:	4826      	ldr	r0, [pc, #152]	; (800025c <endfiniloop+0x6>)
 80001c4:	f380 8809 	msr	PSP, r0
 80001c8:	4825      	ldr	r0, [pc, #148]	; (8000260 <endfiniloop+0xa>)
 80001ca:	f64e 5108 	movw	r1, #60680	; 0xed08
 80001ce:	f2ce 0100 	movt	r1, #57344	; 0xe000
 80001d2:	6008      	str	r0, [r1, #0]
 80001d4:	2002      	movs	r0, #2
 80001d6:	f380 8814 	msr	CONTROL, r0
 80001da:	f3bf 8f6f 	isb	sy
 80001de:	f000 ff2f 	bl	8001040 <__core_init>
 80001e2:	f000 ffe5 	bl	80011b0 <__early_init>
 80001e6:	f04f 3055 	mov.w	r0, #1431655765	; 0x55555555
 80001ea:	491e      	ldr	r1, [pc, #120]	; (8000264 <endfiniloop+0xe>)
 80001ec:	4a1e      	ldr	r2, [pc, #120]	; (8000268 <endfiniloop+0x12>)

080001ee <msloop>:
 80001ee:	4291      	cmp	r1, r2
 80001f0:	bf3c      	itt	cc
 80001f2:	f841 0b04 	strcc.w	r0, [r1], #4
 80001f6:	e7fa      	bcc.n	80001ee <msloop>
 80001f8:	491c      	ldr	r1, [pc, #112]	; (800026c <endfiniloop+0x16>)
 80001fa:	4a18      	ldr	r2, [pc, #96]	; (800025c <endfiniloop+0x6>)

080001fc <psloop>:
 80001fc:	4291      	cmp	r1, r2
 80001fe:	bf3c      	itt	cc
 8000200:	f841 0b04 	strcc.w	r0, [r1], #4
 8000204:	e7fa      	bcc.n	80001fc <psloop>
 8000206:	491a      	ldr	r1, [pc, #104]	; (8000270 <endfiniloop+0x1a>)
 8000208:	4a1a      	ldr	r2, [pc, #104]	; (8000274 <endfiniloop+0x1e>)
 800020a:	4b1b      	ldr	r3, [pc, #108]	; (8000278 <endfiniloop+0x22>)

0800020c <dloop>:
 800020c:	429a      	cmp	r2, r3
 800020e:	bf3e      	ittt	cc
 8000210:	f851 0b04 	ldrcc.w	r0, [r1], #4
 8000214:	f842 0b04 	strcc.w	r0, [r2], #4
 8000218:	e7f8      	bcc.n	800020c <dloop>
 800021a:	2000      	movs	r0, #0
 800021c:	4917      	ldr	r1, [pc, #92]	; (800027c <endfiniloop+0x26>)
 800021e:	4a18      	ldr	r2, [pc, #96]	; (8000280 <endfiniloop+0x2a>)

08000220 <bloop>:
 8000220:	4291      	cmp	r1, r2
 8000222:	bf3c      	itt	cc
 8000224:	f841 0b04 	strcc.w	r0, [r1], #4
 8000228:	e7fa      	bcc.n	8000220 <bloop>
 800022a:	f000 fec1 	bl	8000fb0 <__init_ram_areas>
 800022e:	f000 feff 	bl	8001030 <__late_init>
 8000232:	4c14      	ldr	r4, [pc, #80]	; (8000284 <endfiniloop+0x2e>)
 8000234:	4d14      	ldr	r5, [pc, #80]	; (8000288 <endfiniloop+0x32>)

08000236 <initloop>:
 8000236:	42ac      	cmp	r4, r5
 8000238:	da03      	bge.n	8000242 <endinitloop>
 800023a:	f854 1b04 	ldr.w	r1, [r4], #4
 800023e:	4788      	blx	r1
 8000240:	e7f9      	b.n	8000236 <initloop>

08000242 <endinitloop>:
 8000242:	f001 f8cd 	bl	80013e0 <main>
 8000246:	4c11      	ldr	r4, [pc, #68]	; (800028c <endfiniloop+0x36>)
 8000248:	4d11      	ldr	r5, [pc, #68]	; (8000290 <endfiniloop+0x3a>)

0800024a <finiloop>:
 800024a:	42ac      	cmp	r4, r5
 800024c:	da03      	bge.n	8000256 <endfiniloop>
 800024e:	f854 1b04 	ldr.w	r1, [r4], #4
 8000252:	4788      	blx	r1
 8000254:	e7f9      	b.n	800024a <finiloop>

08000256 <endfiniloop>:
 8000256:	f000 bee3 	b.w	8001020 <__default_exit>
 800025a:	0000      	.short	0x0000
 800025c:	20000400 	.word	0x20000400
 8000260:	08000000 	.word	0x08000000
 8000264:	20000000 	.word	0x20000000
 8000268:	20000200 	.word	0x20000200
 800026c:	20000200 	.word	0x20000200
 8000270:	0800225c 	.word	0x0800225c
 8000274:	20000400 	.word	0x20000400
 8000278:	20000468 	.word	0x20000468
 800027c:	20000468 	.word	0x20000468
 8000280:	20000e24 	.word	0x20000e24
 8000284:	080001c0 	.word	0x080001c0
 8000288:	080001c0 	.word	0x080001c0
 800028c:	080001c0 	.word	0x080001c0
 8000290:	080001c0 	.word	0x080001c0

08000294 <_port_switch>:
 8000294:	e92d 4ff0 	stmdb	sp!, {r4, r5, r6, r7, r8, r9, sl, fp, lr}
 8000298:	f8c1 d00c 	str.w	sp, [r1, #12]
 800029c:	68c3      	ldr	r3, [r0, #12]
 800029e:	469d      	mov	sp, r3
 80002a0:	e8bd 8ff0 	ldmia.w	sp!, {r4, r5, r6, r7, r8, r9, sl, fp, pc}

080002a4 <_port_thread_start>:
 80002a4:	f000 faec 	bl	8000880 <_dbg_check_unlock>
 80002a8:	2300      	movs	r3, #0
 80002aa:	f383 8811 	msr	BASEPRI, r3
 80002ae:	4628      	mov	r0, r5
 80002b0:	47a0      	blx	r4
 80002b2:	2000      	movs	r0, #0
 80002b4:	f000 fe44 	bl	8000f40 <chThdExit>

080002b8 <_port_switch_from_isr>:
 80002b8:	f000 fb12 	bl	80008e0 <_dbg_check_lock>
 80002bc:	f000 f9e0 	bl	8000680 <chSchDoReschedule>
 80002c0:	f000 fade 	bl	8000880 <_dbg_check_unlock>

080002c4 <_port_exit_from_isr>:
 80002c4:	df00      	svc	0
 80002c6:	e7fe      	b.n	80002c6 <_port_exit_from_isr+0x2>

080002c8 <__udivsi3>:
 80002c8:	2200      	movs	r2, #0
 80002ca:	0843      	lsrs	r3, r0, #1
 80002cc:	428b      	cmp	r3, r1
 80002ce:	d374      	bcc.n	80003ba <__udivsi3+0xf2>
 80002d0:	0903      	lsrs	r3, r0, #4
 80002d2:	428b      	cmp	r3, r1
 80002d4:	d35f      	bcc.n	8000396 <__udivsi3+0xce>
 80002d6:	0a03      	lsrs	r3, r0, #8
 80002d8:	428b      	cmp	r3, r1
 80002da:	d344      	bcc.n	8000366 <__udivsi3+0x9e>
 80002dc:	0b03      	lsrs	r3, r0, #12
 80002de:	428b      	cmp	r3, r1
 80002e0:	d328      	bcc.n	8000334 <__udivsi3+0x6c>
 80002e2:	0c03      	lsrs	r3, r0, #16
 80002e4:	428b      	cmp	r3, r1
 80002e6:	d30d      	bcc.n	8000304 <__udivsi3+0x3c>
 80002e8:	22ff      	movs	r2, #255	; 0xff
 80002ea:	0209      	lsls	r1, r1, #8
 80002ec:	ba12      	rev	r2, r2
 80002ee:	0c03      	lsrs	r3, r0, #16
 80002f0:	428b      	cmp	r3, r1
 80002f2:	d302      	bcc.n	80002fa <__udivsi3+0x32>
 80002f4:	1212      	asrs	r2, r2, #8
 80002f6:	0209      	lsls	r1, r1, #8
 80002f8:	d065      	beq.n	80003c6 <__udivsi3+0xfe>
 80002fa:	0b03      	lsrs	r3, r0, #12
 80002fc:	428b      	cmp	r3, r1
 80002fe:	d319      	bcc.n	8000334 <__udivsi3+0x6c>
 8000300:	e000      	b.n	8000304 <__udivsi3+0x3c>
 8000302:	0a09      	lsrs	r1, r1, #8
 8000304:	0bc3      	lsrs	r3, r0, #15
 8000306:	428b      	cmp	r3, r1
 8000308:	d301      	bcc.n	800030e <__udivsi3+0x46>
 800030a:	03cb      	lsls	r3, r1, #15
 800030c:	1ac0      	subs	r0, r0, r3
 800030e:	4152      	adcs	r2, r2
 8000310:	0b83      	lsrs	r3, r0, #14
 8000312:	428b      	cmp	r3, r1
 8000314:	d301      	bcc.n	800031a <__udivsi3+0x52>
 8000316:	038b      	lsls	r3, r1, #14
 8000318:	1ac0      	subs	r0, r0, r3
 800031a:	4152      	adcs	r2, r2
 800031c:	0b43      	lsrs	r3, r0, #13
 800031e:	428b      	cmp	r3, r1
 8000320:	d301      	bcc.n	8000326 <__udivsi3+0x5e>
 8000322:	034b      	lsls	r3, r1, #13
 8000324:	1ac0      	subs	r0, r0, r3
 8000326:	4152      	adcs	r2, r2
 8000328:	0b03      	lsrs	r3, r0, #12
 800032a:	428b      	cmp	r3, r1
 800032c:	d301      	bcc.n	8000332 <__udivsi3+0x6a>
 800032e:	030b      	lsls	r3, r1, #12
 8000330:	1ac0      	subs	r0, r0, r3
 8000332:	4152      	adcs	r2, r2
 8000334:	0ac3      	lsrs	r3, r0, #11
 8000336:	428b      	cmp	r3, r1
 8000338:	d301      	bcc.n	800033e <__udivsi3+0x76>
 800033a:	02cb      	lsls	r3, r1, #11
 800033c:	1ac0      	subs	r0, r0, r3
 800033e:	4152      	adcs	r2, r2
 8000340:	0a83      	lsrs	r3, r0, #10
 8000342:	428b      	cmp	r3, r1
 8000344:	d301      	bcc.n	800034a <__udivsi3+0x82>
 8000346:	028b      	lsls	r3, r1, #10
 8000348:	1ac0      	subs	r0, r0, r3
 800034a:	4152      	adcs	r2, r2
 800034c:	0a43      	lsrs	r3, r0, #9
 800034e:	428b      	cmp	r3, r1
 8000350:	d301      	bcc.n	8000356 <__udivsi3+0x8e>
 8000352:	024b      	lsls	r3, r1, #9
 8000354:	1ac0      	subs	r0, r0, r3
 8000356:	4152      	adcs	r2, r2
 8000358:	0a03      	lsrs	r3, r0, #8
 800035a:	428b      	cmp	r3, r1
 800035c:	d301      	bcc.n	8000362 <__udivsi3+0x9a>
 800035e:	020b      	lsls	r3, r1, #8
 8000360:	1ac0      	subs	r0, r0, r3
 8000362:	4152      	adcs	r2, r2
 8000364:	d2cd      	bcs.n	8000302 <__udivsi3+0x3a>
 8000366:	09c3      	lsrs	r3, r0, #7
 8000368:	428b      	cmp	r3, r1
 800036a:	d301      	bcc.n	8000370 <__udivsi3+0xa8>
 800036c:	01cb      	lsls	r3, r1, #7
 800036e:	1ac0      	subs	r0, r0, r3
 8000370:	4152      	adcs	r2, r2
 8000372:	0983      	lsrs	r3, r0, #6
 8000374:	428b      	cmp	r3, r1
 8000376:	d301      	bcc.n	800037c <__udivsi3+0xb4>
 8000378:	018b      	lsls	r3, r1, #6
 800037a:	1ac0      	subs	r0, r0, r3
 800037c:	4152      	adcs	r2, r2
 800037e:	0943      	lsrs	r3, r0, #5
 8000380:	428b      	cmp	r3, r1
 8000382:	d301      	bcc.n	8000388 <__udivsi3+0xc0>
 8000384:	014b      	lsls	r3, r1, #5
 8000386:	1ac0      	subs	r0, r0, r3
 8000388:	4152      	adcs	r2, r2
 800038a:	0903      	lsrs	r3, r0, #4
 800038c:	428b      	cmp	r3, r1
 800038e:	d301      	bcc.n	8000394 <__udivsi3+0xcc>
 8000390:	010b      	lsls	r3, r1, #4
 8000392:	1ac0      	subs	r0, r0, r3
 8000394:	4152      	adcs	r2, r2
 8000396:	08c3      	lsrs	r3, r0, #3
 8000398:	428b      	cmp	r3, r1
 800039a:	d301      	bcc.n	80003a0 <__udivsi3+0xd8>
 800039c:	00cb      	lsls	r3, r1, #3
 800039e:	1ac0      	subs	r0, r0, r3
 80003a0:	4152      	adcs	r2, r2
 80003a2:	0883      	lsrs	r3, r0, #2
 80003a4:	428b      	cmp	r3, r1
 80003a6:	d301      	bcc.n	80003ac <__udivsi3+0xe4>
 80003a8:	008b      	lsls	r3, r1, #2
 80003aa:	1ac0      	subs	r0, r0, r3
 80003ac:	4152      	adcs	r2, r2
 80003ae:	0843      	lsrs	r3, r0, #1
 80003b0:	428b      	cmp	r3, r1
 80003b2:	d301      	bcc.n	80003b8 <__udivsi3+0xf0>
 80003b4:	004b      	lsls	r3, r1, #1
 80003b6:	1ac0      	subs	r0, r0, r3
 80003b8:	4152      	adcs	r2, r2
 80003ba:	1a41      	subs	r1, r0, r1
 80003bc:	d200      	bcs.n	80003c0 <__udivsi3+0xf8>
 80003be:	4601      	mov	r1, r0
 80003c0:	4152      	adcs	r2, r2
 80003c2:	4610      	mov	r0, r2
 80003c4:	4770      	bx	lr
 80003c6:	e7ff      	b.n	80003c8 <__udivsi3+0x100>
 80003c8:	b501      	push	{r0, lr}
 80003ca:	2000      	movs	r0, #0
 80003cc:	f000 f806 	bl	80003dc <__aeabi_idiv0>
 80003d0:	bd02      	pop	{r1, pc}
 80003d2:	46c0      	nop			; (mov r8, r8)

080003d4 <__aeabi_uidivmod>:
 80003d4:	2900      	cmp	r1, #0
 80003d6:	d0f7      	beq.n	80003c8 <__udivsi3+0x100>
 80003d8:	e776      	b.n	80002c8 <__udivsi3>
 80003da:	4770      	bx	lr

080003dc <__aeabi_idiv0>:
 80003dc:	4770      	bx	lr
 80003de:	46c0      	nop			; (mov r8, r8)

080003e0 <SVC_Handler>:
 * @details The SVC vector is used for exception mode re-entering after a
 *          context switch.
 * @note    The PendSV vector is only used in advanced kernel mode.
 */
/*lint -save -e9075 [8.4] All symbols are invoked from asm context.*/
void SVC_Handler(void) {
 80003e0:	b580      	push	{r7, lr}
 80003e2:	af00      	add	r7, sp, #0
 */
__attribute__( ( always_inline ) ) __STATIC_INLINE uint32_t __get_PSP(void)
{
  register uint32_t result;

  __ASM volatile ("MRS %0, psp\n"  : "=r" (result) );
 80003e4:	f3ef 8309 	mrs	r3, PSP
  /* The port_extctx structure is pointed by the PSP register.*/
  ctxp = (struct port_extctx *)__get_PSP();

  /* Discarding the current exception context and positioning the stack to
     point to the real one.*/
  ctxp++;
 80003e8:	3320      	adds	r3, #32
  \details Assigns the given value to the Process Stack Pointer (PSP).
  \param [in]    topOfProcStack  Process Stack Pointer value to set
 */
__attribute__( ( always_inline ) ) __STATIC_INLINE void __set_PSP(uint32_t topOfProcStack)
{
  __ASM volatile ("MSR psp, %0\n" : : "r" (topOfProcStack) : "sp");
 80003ea:	f383 8809 	msr	PSP, r3
  \details Assigns the given value to the Base Priority register.
  \param [in]    basePri  Base Priority value to set
 */
__attribute__( ( always_inline ) ) __STATIC_INLINE void __set_BASEPRI(uint32_t value)
{
  __ASM volatile ("MSR basepri, %0" : : "r" (value) : "memory");
 80003ee:	2300      	movs	r3, #0
 80003f0:	f383 8811 	msr	BASEPRI, r3
  /* Restoring real position of the original stack frame.*/
  __set_PSP((uint32_t)ctxp);

  /* Restoring the normal interrupts status.*/
  port_unlock_from_isr();
}
 80003f4:	46bd      	mov	sp, r7
 80003f6:	bd80      	pop	{r7, pc}
	...

08000400 <trace_next>:
 *
 * @notapi
 */
static inline systime_t st_lld_get_counter(void) {

  return (systime_t)STM32_ST_TIM->CNT;
 8000400:	2180      	movs	r1, #128	; 0x80
 *
 * @notapi
 */
static NOINLINE void trace_next(void) {

  ch.dbg.trace_buffer.ptr->time    = chVTGetSystemTimeX();
 8000402:	4a0a      	ldr	r2, [pc, #40]	; (800042c <trace_next+0x2c>)
 8000404:	05c9      	lsls	r1, r1, #23
 8000406:	6bd3      	ldr	r3, [r2, #60]	; 0x3c
 8000408:	6a49      	ldr	r1, [r1, #36]	; 0x24
 800040a:	6059      	str	r1, [r3, #4]
 *
 * @return              The realtime counter value.
 */
static inline rtcnt_t port_rt_get_counter_value(void) {

  return DWT->CYCCNT;
 800040c:	4908      	ldr	r1, [pc, #32]	; (8000430 <trace_next+0x30>)
 800040e:	6848      	ldr	r0, [r1, #4]
#if PORT_SUPPORTS_RT == TRUE
  ch.dbg.trace_buffer.ptr->rtstamp = chSysGetRealtimeCounterX();
 8000410:	7819      	ldrb	r1, [r3, #0]
 8000412:	0200      	lsls	r0, r0, #8
 8000414:	4301      	orrs	r1, r0
 8000416:	6019      	str	r1, [r3, #0]
#endif

  /* Trace hook, useful in order to interface debug tools.*/
  CH_CFG_TRACE_HOOK(ch.dbg.trace_buffer.ptr);

  if (++ch.dbg.trace_buffer.ptr >=
 8000418:	2184      	movs	r1, #132	; 0x84
 800041a:	0109      	lsls	r1, r1, #4
 800041c:	3310      	adds	r3, #16
 800041e:	1851      	adds	r1, r2, r1
 8000420:	428b      	cmp	r3, r1
 8000422:	d301      	bcc.n	8000428 <trace_next+0x28>
      &ch.dbg.trace_buffer.buffer[CH_DBG_TRACE_BUFFER_SIZE]) {
    ch.dbg.trace_buffer.ptr = &ch.dbg.trace_buffer.buffer[0];
 8000424:	0013      	movs	r3, r2
 8000426:	3340      	adds	r3, #64	; 0x40
 8000428:	63d3      	str	r3, [r2, #60]	; 0x3c
  }
}
 800042a:	4770      	bx	lr
 800042c:	2000059c 	.word	0x2000059c
 8000430:	e0001000 	.word	0xe0001000
	...

08000440 <_idle_thread.lto_priv.27>:
 *          that this thread is executed only if there are no other ready
 *          threads in the system.
 *
 * @param[in] p         the thread parameter, unused in this scenario
 */
static void _idle_thread(void *p) {
 8000440:	e7fe      	b.n	8000440 <_idle_thread.lto_priv.27>
 8000442:	46c0      	nop			; (mov r8, r8)
	...

08000450 <_port_irq_epilogue>:
/*===========================================================================*/

/**
 * @brief   Exception exit redirection to _port_switch_from_isr().
 */
void _port_irq_epilogue(void) {
 8000450:	b580      	push	{r7, lr}
 8000452:	2320      	movs	r3, #32
 8000454:	af00      	add	r7, sp, #0
 8000456:	f383 8811 	msr	BASEPRI, r3

  port_lock_from_isr();
  if ((SCB->ICSR & SCB_ICSR_RETTOBASE_Msk) != 0U) {
 800045a:	4b0f      	ldr	r3, [pc, #60]	; (8000498 <_port_irq_epilogue+0x48>)
 800045c:	685b      	ldr	r3, [r3, #4]
 800045e:	051b      	lsls	r3, r3, #20
 8000460:	d404      	bmi.n	800046c <_port_irq_epilogue+0x1c>
 8000462:	2300      	movs	r3, #0
 8000464:	f383 8811 	msr	BASEPRI, r3
    /* Note, returning without unlocking is intentional, this is done in
       order to keep the rest of the context switch atomic.*/
    return;
  }
  port_unlock_from_isr();
}
 8000468:	46bd      	mov	sp, r7
 800046a:	bd80      	pop	{r7, pc}
  __ASM volatile ("MRS %0, psp\n"  : "=r" (result) );
 800046c:	f3ef 8309 	mrs	r3, PSP
    ctxp->xpsr = (regarm_t)0x01000000;
 8000470:	2280      	movs	r2, #128	; 0x80
 8000472:	3b20      	subs	r3, #32
 8000474:	0452      	lsls	r2, r2, #17
 8000476:	61da      	str	r2, [r3, #28]
  __ASM volatile ("MSR psp, %0\n" : : "r" (topOfProcStack) : "sp");
 8000478:	f383 8809 	msr	PSP, r3
 * @retval false        if preemption is not required.
 *
 * @special
 */
bool chSchIsPreemptionRequired(void) {
  tprio_t p1 = firstprio(&ch.rlist.queue);
 800047c:	4a07      	ldr	r2, [pc, #28]	; (800049c <_port_irq_epilogue+0x4c>)
 800047e:	6811      	ldr	r1, [r2, #0]
  tprio_t p2 = currp->prio;
 8000480:	6992      	ldr	r2, [r2, #24]
    if (chSchIsPreemptionRequired()) {
 8000482:	6889      	ldr	r1, [r1, #8]
 8000484:	6892      	ldr	r2, [r2, #8]
 8000486:	4291      	cmp	r1, r2
 8000488:	d902      	bls.n	8000490 <_port_irq_epilogue+0x40>
      ctxp->pc = (regarm_t)_port_switch_from_isr;
 800048a:	4a05      	ldr	r2, [pc, #20]	; (80004a0 <_port_irq_epilogue+0x50>)
 800048c:	619a      	str	r2, [r3, #24]
 800048e:	e7eb      	b.n	8000468 <_port_irq_epilogue+0x18>
      ctxp->pc = (regarm_t)_port_exit_from_isr;
 8000490:	4a04      	ldr	r2, [pc, #16]	; (80004a4 <_port_irq_epilogue+0x54>)
 8000492:	619a      	str	r2, [r3, #24]
 8000494:	e7e8      	b.n	8000468 <_port_irq_epilogue+0x18>
 8000496:	46c0      	nop			; (mov r8, r8)
 8000498:	e000ed00 	.word	0xe000ed00
 800049c:	2000059c 	.word	0x2000059c
 80004a0:	080002b9 	.word	0x080002b9
 80004a4:	080002c4 	.word	0x080002c4
	...

080004b0 <chTMStopMeasurementX>:
 *
 * @xclass
 */
NOINLINE void chTMStopMeasurementX(time_measurement_t *tmp) {

  tm_stop(tmp, chSysGetRealtimeCounterX(), ch.tm.offset);
 80004b0:	4a0e      	ldr	r2, [pc, #56]	; (80004ec <chTMStopMeasurementX+0x3c>)
 80004b2:	490f      	ldr	r1, [pc, #60]	; (80004f0 <chTMStopMeasurementX+0x40>)
 80004b4:	4b0f      	ldr	r3, [pc, #60]	; (80004f4 <chTMStopMeasurementX+0x44>)
 80004b6:	5889      	ldr	r1, [r1, r2]
  tmp->n++;
 80004b8:	68c2      	ldr	r2, [r0, #12]
 80004ba:	685b      	ldr	r3, [r3, #4]
 80004bc:	3201      	adds	r2, #1
 80004be:	60c2      	str	r2, [r0, #12]
  tmp->last = (now - tmp->last) - offset;
 80004c0:	6882      	ldr	r2, [r0, #8]
NOINLINE void chTMStopMeasurementX(time_measurement_t *tmp) {
 80004c2:	b530      	push	{r4, r5, lr}
  tmp->last = (now - tmp->last) - offset;
 80004c4:	1a9b      	subs	r3, r3, r2
 80004c6:	1a5b      	subs	r3, r3, r1
  tmp->cumulative += (rttime_t)tmp->last;
 80004c8:	001c      	movs	r4, r3
 80004ca:	6901      	ldr	r1, [r0, #16]
 80004cc:	6942      	ldr	r2, [r0, #20]
 80004ce:	2500      	movs	r5, #0
 80004d0:	1864      	adds	r4, r4, r1
 80004d2:	4155      	adcs	r5, r2
  if (tmp->last > tmp->worst) {
 80004d4:	6842      	ldr	r2, [r0, #4]
  tmp->last = (now - tmp->last) - offset;
 80004d6:	6083      	str	r3, [r0, #8]
  tmp->cumulative += (rttime_t)tmp->last;
 80004d8:	6104      	str	r4, [r0, #16]
 80004da:	6145      	str	r5, [r0, #20]
  if (tmp->last > tmp->worst) {
 80004dc:	4293      	cmp	r3, r2
 80004de:	d900      	bls.n	80004e2 <chTMStopMeasurementX+0x32>
    tmp->worst = tmp->last;
 80004e0:	6043      	str	r3, [r0, #4]
  if (tmp->last < tmp->best) {
 80004e2:	6802      	ldr	r2, [r0, #0]
 80004e4:	4293      	cmp	r3, r2
 80004e6:	d200      	bcs.n	80004ea <chTMStopMeasurementX+0x3a>
    tmp->best = tmp->last;
 80004e8:	6003      	str	r3, [r0, #0]
}
 80004ea:	bd30      	pop	{r4, r5, pc}
 80004ec:	00000884 	.word	0x00000884
 80004f0:	2000059c 	.word	0x2000059c
 80004f4:	e0001000 	.word	0xe0001000
	...

08000500 <_trace_switch.part.0>:
void _trace_switch(thread_t *ntp, thread_t *otp) {

  (void)ntp;

  if ((ch.dbg.trace_buffer.suspended & CH_DBG_TRACE_MASK_SWITCH) == 0U) {
    ch.dbg.trace_buffer.ptr->type        = CH_TRACE_TYPE_SWITCH;
 8000500:	2207      	movs	r2, #7
void _trace_switch(thread_t *ntp, thread_t *otp) {
 8000502:	b570      	push	{r4, r5, r6, lr}
    ch.dbg.trace_buffer.ptr->type        = CH_TRACE_TYPE_SWITCH;
 8000504:	2501      	movs	r5, #1
 8000506:	4c0a      	ldr	r4, [pc, #40]	; (8000530 <_trace_switch.part.0+0x30>)
 8000508:	6be3      	ldr	r3, [r4, #60]	; 0x3c
 800050a:	7819      	ldrb	r1, [r3, #0]
 800050c:	4391      	bics	r1, r2
 800050e:	4329      	orrs	r1, r5
 8000510:	7019      	strb	r1, [r3, #0]
    ch.dbg.trace_buffer.ptr->state       = (uint8_t)otp->state;
 8000512:	2120      	movs	r1, #32
 8000514:	781d      	ldrb	r5, [r3, #0]
 8000516:	5c41      	ldrb	r1, [r0, r1]
 8000518:	402a      	ands	r2, r5
 800051a:	00c9      	lsls	r1, r1, #3
 800051c:	430a      	orrs	r2, r1
 800051e:	701a      	strb	r2, [r3, #0]
    ch.dbg.trace_buffer.ptr->u.sw.ntp    = currp;
 8000520:	69a2      	ldr	r2, [r4, #24]
 8000522:	609a      	str	r2, [r3, #8]
    ch.dbg.trace_buffer.ptr->u.sw.wtobjp = otp->u.wtobjp;
 8000524:	6a42      	ldr	r2, [r0, #36]	; 0x24
 8000526:	60da      	str	r2, [r3, #12]
    trace_next();
 8000528:	f7ff ff6a 	bl	8000400 <trace_next>
  }
}
 800052c:	bd70      	pop	{r4, r5, r6, pc}
 800052e:	46c0      	nop			; (mov r8, r8)
 8000530:	2000059c 	.word	0x2000059c
	...

08000540 <_trace_isr_leave>:
 *
 * @param[in] isr       name of the isr
 *
 * @notapi
 */
void _trace_isr_leave(const char *isr) {
 8000540:	b510      	push	{r4, lr}

  if ((ch.dbg.trace_buffer.suspended & CH_DBG_TRACE_MASK_ISR) == 0U) {
 8000542:	4b0b      	ldr	r3, [pc, #44]	; (8000570 <_trace_isr_leave+0x30>)
 8000544:	8f1a      	ldrh	r2, [r3, #56]	; 0x38
 8000546:	0792      	lsls	r2, r2, #30
 8000548:	d410      	bmi.n	800056c <_trace_isr_leave+0x2c>
  __ASM volatile ("MSR basepri, %0" : : "r" (value) : "memory");
 800054a:	2220      	movs	r2, #32
 800054c:	f382 8811 	msr	BASEPRI, r2
    port_lock_from_isr();
    ch.dbg.trace_buffer.ptr->type        = CH_TRACE_TYPE_ISR_LEAVE;
 8000550:	2403      	movs	r4, #3
 8000552:	6bd9      	ldr	r1, [r3, #60]	; 0x3c
 8000554:	3a19      	subs	r2, #25
 8000556:	780b      	ldrb	r3, [r1, #0]
    ch.dbg.trace_buffer.ptr->state       = 0U;
    ch.dbg.trace_buffer.ptr->u.isr.name  = isr;
 8000558:	6088      	str	r0, [r1, #8]
    ch.dbg.trace_buffer.ptr->type        = CH_TRACE_TYPE_ISR_LEAVE;
 800055a:	4393      	bics	r3, r2
 800055c:	4323      	orrs	r3, r4
    ch.dbg.trace_buffer.ptr->state       = 0U;
 800055e:	4013      	ands	r3, r2
 8000560:	700b      	strb	r3, [r1, #0]
    trace_next();
 8000562:	f7ff ff4d 	bl	8000400 <trace_next>
 8000566:	2300      	movs	r3, #0
 8000568:	f383 8811 	msr	BASEPRI, r3
    port_unlock_from_isr();
  }
}
 800056c:	bd10      	pop	{r4, pc}
 800056e:	46c0      	nop			; (mov r8, r8)
 8000570:	2000059c 	.word	0x2000059c
	...

08000580 <_trace_isr_enter>:
void _trace_isr_enter(const char *isr) {
 8000580:	b510      	push	{r4, lr}
  if ((ch.dbg.trace_buffer.suspended & CH_DBG_TRACE_MASK_ISR) == 0U) {
 8000582:	4b0b      	ldr	r3, [pc, #44]	; (80005b0 <_trace_isr_enter+0x30>)
 8000584:	8f1a      	ldrh	r2, [r3, #56]	; 0x38
 8000586:	0792      	lsls	r2, r2, #30
 8000588:	d410      	bmi.n	80005ac <_trace_isr_enter+0x2c>
 800058a:	2220      	movs	r2, #32
 800058c:	f382 8811 	msr	BASEPRI, r2
    ch.dbg.trace_buffer.ptr->type        = CH_TRACE_TYPE_ISR_ENTER;
 8000590:	2402      	movs	r4, #2
 8000592:	6bd9      	ldr	r1, [r3, #60]	; 0x3c
 8000594:	3a19      	subs	r2, #25
 8000596:	780b      	ldrb	r3, [r1, #0]
    ch.dbg.trace_buffer.ptr->u.isr.name  = isr;
 8000598:	6088      	str	r0, [r1, #8]
    ch.dbg.trace_buffer.ptr->type        = CH_TRACE_TYPE_ISR_ENTER;
 800059a:	4393      	bics	r3, r2
 800059c:	4323      	orrs	r3, r4
    ch.dbg.trace_buffer.ptr->state       = 0U;
 800059e:	4013      	ands	r3, r2
 80005a0:	700b      	strb	r3, [r1, #0]
    trace_next();
 80005a2:	f7ff ff2d 	bl	8000400 <trace_next>
 80005a6:	2300      	movs	r3, #0
 80005a8:	f383 8811 	msr	BASEPRI, r3
}
 80005ac:	bd10      	pop	{r4, pc}
 80005ae:	46c0      	nop			; (mov r8, r8)
 80005b0:	2000059c 	.word	0x2000059c
	...

080005c0 <chSysHalt>:
 *
 * @param[in] reason        pointer to an error string
 *
 * @special
 */
void chSysHalt(const char *reason) {
 80005c0:	b570      	push	{r4, r5, r6, lr}
 80005c2:	0005      	movs	r5, r0
  __ASM volatile ("cpsid i" : : : "memory");
 80005c4:	b672      	cpsid	i
 *
 * @notapi
 */
void _trace_halt(const char *reason) {

  if ((ch.dbg.trace_buffer.suspended & CH_DBG_TRACE_MASK_HALT) == 0U) {
 80005c6:	4c09      	ldr	r4, [pc, #36]	; (80005ec <chSysHalt+0x2c>)
 80005c8:	8f23      	ldrh	r3, [r4, #56]	; 0x38
 80005ca:	075b      	lsls	r3, r3, #29
 80005cc:	d501      	bpl.n	80005d2 <chSysHalt+0x12>

  /* Logging the event.*/
  _trace_halt(reason);

  /* Pointing to the passed message.*/
  ch.dbg.panic_msg = reason;
 80005ce:	62e5      	str	r5, [r4, #44]	; 0x2c
 80005d0:	e7fe      	b.n	80005d0 <chSysHalt+0x10>
    ch.dbg.trace_buffer.ptr->type          = CH_TRACE_TYPE_HALT;
 80005d2:	2207      	movs	r2, #7
 80005d4:	2004      	movs	r0, #4
 80005d6:	6be1      	ldr	r1, [r4, #60]	; 0x3c
 80005d8:	780b      	ldrb	r3, [r1, #0]
    ch.dbg.trace_buffer.ptr->state         = 0;
    ch.dbg.trace_buffer.ptr->u.halt.reason = reason;
 80005da:	608d      	str	r5, [r1, #8]
    ch.dbg.trace_buffer.ptr->type          = CH_TRACE_TYPE_HALT;
 80005dc:	4393      	bics	r3, r2
 80005de:	4303      	orrs	r3, r0
    ch.dbg.trace_buffer.ptr->state         = 0;
 80005e0:	4013      	ands	r3, r2
 80005e2:	700b      	strb	r3, [r1, #0]
    trace_next();
 80005e4:	f7ff ff0c 	bl	8000400 <trace_next>
 80005e8:	62e5      	str	r5, [r4, #44]	; 0x2c
 80005ea:	e7f1      	b.n	80005d0 <chSysHalt+0x10>
 80005ec:	2000059c 	.word	0x2000059c

080005f0 <chDbgCheckClassS>:
 *
 * @api
 */
void chDbgCheckClassS(void) {

  if ((ch.dbg.isr_cnt != (cnt_t)0) || (ch.dbg.lock_cnt <= (cnt_t)0)) {
 80005f0:	4b05      	ldr	r3, [pc, #20]	; (8000608 <chDbgCheckClassS+0x18>)
void chDbgCheckClassS(void) {
 80005f2:	b510      	push	{r4, lr}
  if ((ch.dbg.isr_cnt != (cnt_t)0) || (ch.dbg.lock_cnt <= (cnt_t)0)) {
 80005f4:	6b1a      	ldr	r2, [r3, #48]	; 0x30
 80005f6:	2a00      	cmp	r2, #0
 80005f8:	d103      	bne.n	8000602 <chDbgCheckClassS+0x12>
 80005fa:	6b5b      	ldr	r3, [r3, #52]	; 0x34
 80005fc:	2b00      	cmp	r3, #0
 80005fe:	dd00      	ble.n	8000602 <chDbgCheckClassS+0x12>
    chSysHalt("SV#11");
  }
}
 8000600:	bd10      	pop	{r4, pc}
    chSysHalt("SV#11");
 8000602:	4802      	ldr	r0, [pc, #8]	; (800060c <chDbgCheckClassS+0x1c>)
 8000604:	f7ff ffdc 	bl	80005c0 <chSysHalt>
 8000608:	2000059c 	.word	0x2000059c
 800060c:	0800209c 	.word	0x0800209c

08000610 <chSchGoSleepS>:
void chSchGoSleepS(tstate_t newstate) {
 8000610:	b570      	push	{r4, r5, r6, lr}
 8000612:	0006      	movs	r6, r0
  chDbgCheckClassS();
 8000614:	f7ff ffec 	bl	80005f0 <chDbgCheckClassS>
  otp->state = newstate;
 8000618:	2120      	movs	r1, #32
  thread_t *otp = currp;
 800061a:	4c0f      	ldr	r4, [pc, #60]	; (8000658 <chSchGoSleepS+0x48>)
 800061c:	69a5      	ldr	r5, [r4, #24]
  tp->queue.prev->queue.next = tp;
  tqp->prev                  = tp;
}

static inline thread_t *queue_fifo_remove(threads_queue_t *tqp) {
  thread_t *tp = tqp->next;
 800061e:	6823      	ldr	r3, [r4, #0]
  otp->state = newstate;
 8000620:	546e      	strb	r6, [r5, r1]

  tqp->next             = tp->queue.next;
 8000622:	681a      	ldr	r2, [r3, #0]
  tqp->next->queue.prev = (thread_t *)tqp;
 8000624:	6054      	str	r4, [r2, #4]
  tqp->next             = tp->queue.next;
 8000626:	6022      	str	r2, [r4, #0]
  currp->state = CH_STATE_CURRENT;
 8000628:	2201      	movs	r2, #1
 800062a:	545a      	strb	r2, [r3, r1]
  currp = queue_fifo_remove(&ch.rlist.queue);
 800062c:	61a3      	str	r3, [r4, #24]
  if ((ch.dbg.trace_buffer.suspended & CH_DBG_TRACE_MASK_SWITCH) == 0U) {
 800062e:	8f23      	ldrh	r3, [r4, #56]	; 0x38
 8000630:	421a      	tst	r2, r3
 8000632:	d102      	bne.n	800063a <chSchGoSleepS+0x2a>
 8000634:	0028      	movs	r0, r5
 8000636:	f7ff ff63 	bl	8000500 <_trace_switch.part.0>
  __ASM volatile ("MRS %0, psp\n"  : "=r" (result) );
 800063a:	f3ef 8309 	mrs	r3, PSP
  chSysSwitch(currp, otp);
 800063e:	69ea      	ldr	r2, [r5, #28]
 8000640:	3b24      	subs	r3, #36	; 0x24
 8000642:	429a      	cmp	r2, r3
 8000644:	d804      	bhi.n	8000650 <chSchGoSleepS+0x40>
 8000646:	0029      	movs	r1, r5
 8000648:	69a0      	ldr	r0, [r4, #24]
 800064a:	f7ff fe23 	bl	8000294 <_port_switch>
}
 800064e:	bd70      	pop	{r4, r5, r6, pc}
  chSysSwitch(currp, otp);
 8000650:	4802      	ldr	r0, [pc, #8]	; (800065c <chSchGoSleepS+0x4c>)
 8000652:	f7ff ffb5 	bl	80005c0 <chSysHalt>
 8000656:	46c0      	nop			; (mov r8, r8)
 8000658:	2000059c 	.word	0x2000059c
 800065c:	080020a4 	.word	0x080020a4

08000660 <chDbgCheckClassI>:
  if ((ch.dbg.isr_cnt < (cnt_t)0) || (ch.dbg.lock_cnt <= (cnt_t)0)) {
 8000660:	4b05      	ldr	r3, [pc, #20]	; (8000678 <chDbgCheckClassI+0x18>)
void chDbgCheckClassI(void) {
 8000662:	b510      	push	{r4, lr}
  if ((ch.dbg.isr_cnt < (cnt_t)0) || (ch.dbg.lock_cnt <= (cnt_t)0)) {
 8000664:	6b1a      	ldr	r2, [r3, #48]	; 0x30
 8000666:	2a00      	cmp	r2, #0
 8000668:	db03      	blt.n	8000672 <chDbgCheckClassI+0x12>
 800066a:	6b5b      	ldr	r3, [r3, #52]	; 0x34
 800066c:	2b00      	cmp	r3, #0
 800066e:	dd00      	ble.n	8000672 <chDbgCheckClassI+0x12>
}
 8000670:	bd10      	pop	{r4, pc}
    chSysHalt("SV#10");
 8000672:	4802      	ldr	r0, [pc, #8]	; (800067c <chDbgCheckClassI+0x1c>)
 8000674:	f7ff ffa4 	bl	80005c0 <chSysHalt>
 8000678:	2000059c 	.word	0x2000059c
 800067c:	08002094 	.word	0x08002094

08000680 <chSchDoReschedule>:
 * @note    Not a user function, it is meant to be invoked by the scheduler
 *          itself.
 *
 * @special
 */
void chSchDoRescheduleAhead(void) {
 8000680:	b5f8      	push	{r3, r4, r5, r6, r7, lr}
  thread_t *otp = currp;

  /* Picks the first thread from the ready queue and makes it current.*/
  currp = queue_fifo_remove(&ch.rlist.queue);
  currp->state = CH_STATE_CURRENT;
 8000682:	2201      	movs	r2, #1
 8000684:	2720      	movs	r7, #32
  thread_t *otp = currp;
 8000686:	4d1a      	ldr	r5, [pc, #104]	; (80006f0 <chSchDoReschedule+0x70>)
  thread_t *tp = tqp->next;
 8000688:	682b      	ldr	r3, [r5, #0]
 800068a:	69ae      	ldr	r6, [r5, #24]
  tqp->next             = tp->queue.next;
 800068c:	681c      	ldr	r4, [r3, #0]
  tqp->next->queue.prev = (thread_t *)tqp;
 800068e:	6065      	str	r5, [r4, #4]
  tqp->next             = tp->queue.next;
 8000690:	602c      	str	r4, [r5, #0]
  currp->state = CH_STATE_CURRENT;
 8000692:	55da      	strb	r2, [r3, r7]
  currp = queue_fifo_remove(&ch.rlist.queue);
 8000694:	61ab      	str	r3, [r5, #24]
  chDbgCheckClassI();
 8000696:	f7ff ffe3 	bl	8000660 <chDbgCheckClassI>
  chDbgCheck(tp != NULL);
 800069a:	2e00      	cmp	r6, #0
 800069c:	d022      	beq.n	80006e4 <chSchDoReschedule+0x64>
  chDbgAssert((tp->state != CH_STATE_READY) &&
 800069e:	5df3      	ldrb	r3, [r6, r7]
 80006a0:	2b00      	cmp	r3, #0
 80006a2:	d01f      	beq.n	80006e4 <chSchDoReschedule+0x64>
 80006a4:	2b0f      	cmp	r3, #15
 80006a6:	d01d      	beq.n	80006e4 <chSchDoReschedule+0x64>
  tp->state = CH_STATE_READY;
 80006a8:	2300      	movs	r3, #0
 80006aa:	55f3      	strb	r3, [r6, r7]
 80006ac:	68b3      	ldr	r3, [r6, #8]
 80006ae:	e000      	b.n	80006b2 <chSchDoReschedule+0x32>
 80006b0:	6824      	ldr	r4, [r4, #0]
  } while (cp->prio > tp->prio);
 80006b2:	68a2      	ldr	r2, [r4, #8]
 80006b4:	429a      	cmp	r2, r3
 80006b6:	d8fb      	bhi.n	80006b0 <chSchDoReschedule+0x30>
  tp->queue.prev             = cp->queue.prev;
 80006b8:	6863      	ldr	r3, [r4, #4]
  tp->queue.next             = cp;
 80006ba:	6034      	str	r4, [r6, #0]
  tp->queue.prev             = cp->queue.prev;
 80006bc:	6073      	str	r3, [r6, #4]
  tp->queue.prev->queue.next = tp;
 80006be:	601e      	str	r6, [r3, #0]
  cp->queue.prev             = tp;
 80006c0:	6066      	str	r6, [r4, #4]
 80006c2:	8f2b      	ldrh	r3, [r5, #56]	; 0x38
 80006c4:	07db      	lsls	r3, r3, #31
 80006c6:	d402      	bmi.n	80006ce <chSchDoReschedule+0x4e>
 80006c8:	0030      	movs	r0, r6
 80006ca:	f7ff ff19 	bl	8000500 <_trace_switch.part.0>
 80006ce:	f3ef 8309 	mrs	r3, PSP

  /* Placing in ready list ahead of peers.*/
  otp = chSchReadyAheadI(otp);

  /* Swap operation as tail call.*/
  chSysSwitch(currp, otp);
 80006d2:	69f2      	ldr	r2, [r6, #28]
 80006d4:	3b24      	subs	r3, #36	; 0x24
 80006d6:	429a      	cmp	r2, r3
 80006d8:	d807      	bhi.n	80006ea <chSchDoReschedule+0x6a>
 80006da:	69a8      	ldr	r0, [r5, #24]
 80006dc:	0031      	movs	r1, r6
 80006de:	f7ff fdd9 	bl	8000294 <_port_switch>
}
 80006e2:	bdf8      	pop	{r3, r4, r5, r6, r7, pc}
  chDbgCheck(tp != NULL);
 80006e4:	4803      	ldr	r0, [pc, #12]	; (80006f4 <chSchDoReschedule+0x74>)
 80006e6:	f7ff ff6b 	bl	80005c0 <chSysHalt>
  chSysSwitch(currp, otp);
 80006ea:	4803      	ldr	r0, [pc, #12]	; (80006f8 <chSchDoReschedule+0x78>)
 80006ec:	f7ff ff68 	bl	80005c0 <chSysHalt>
 80006f0:	2000059c 	.word	0x2000059c
 80006f4:	08001ff0 	.word	0x08001ff0
 80006f8:	080020a4 	.word	0x080020a4
 80006fc:	00000000 	.word	0x00000000

08000700 <chSchReadyI>:
thread_t *chSchReadyI(thread_t *tp) {
 8000700:	b510      	push	{r4, lr}
 8000702:	0004      	movs	r4, r0
  chDbgCheckClassI();
 8000704:	f7ff ffac 	bl	8000660 <chDbgCheckClassI>
  chDbgCheck(tp != NULL);
 8000708:	2c00      	cmp	r4, #0
 800070a:	d014      	beq.n	8000736 <chSchReadyI+0x36>
  chDbgAssert((tp->state != CH_STATE_READY) &&
 800070c:	2320      	movs	r3, #32
 800070e:	5ce2      	ldrb	r2, [r4, r3]
 8000710:	2a00      	cmp	r2, #0
 8000712:	d010      	beq.n	8000736 <chSchReadyI+0x36>
 8000714:	2a0f      	cmp	r2, #15
 8000716:	d00e      	beq.n	8000736 <chSchReadyI+0x36>
  tp->state = CH_STATE_READY;
 8000718:	2200      	movs	r2, #0
 800071a:	54e2      	strb	r2, [r4, r3]
 800071c:	68a2      	ldr	r2, [r4, #8]
  cp = (thread_t *)&ch.rlist.queue;
 800071e:	4b07      	ldr	r3, [pc, #28]	; (800073c <chSchReadyI+0x3c>)
    cp = cp->queue.next;
 8000720:	681b      	ldr	r3, [r3, #0]
  } while (cp->prio >= tp->prio);
 8000722:	6899      	ldr	r1, [r3, #8]
 8000724:	4291      	cmp	r1, r2
 8000726:	d2fb      	bcs.n	8000720 <chSchReadyI+0x20>
  tp->queue.prev             = cp->queue.prev;
 8000728:	685a      	ldr	r2, [r3, #4]
  tp->queue.next             = cp;
 800072a:	6023      	str	r3, [r4, #0]
  tp->queue.prev             = cp->queue.prev;
 800072c:	6062      	str	r2, [r4, #4]
}
 800072e:	0020      	movs	r0, r4
  tp->queue.prev->queue.next = tp;
 8000730:	6014      	str	r4, [r2, #0]
  cp->queue.prev             = tp;
 8000732:	605c      	str	r4, [r3, #4]
}
 8000734:	bd10      	pop	{r4, pc}
  chDbgCheck(tp != NULL);
 8000736:	4802      	ldr	r0, [pc, #8]	; (8000740 <chSchReadyI+0x40>)
 8000738:	f7ff ff42 	bl	80005c0 <chSysHalt>
 800073c:	2000059c 	.word	0x2000059c
 8000740:	08001fc4 	.word	0x08001fc4
	...

08000750 <_dbg_check_leave_isr>:
void _dbg_check_leave_isr(void) {
 8000750:	b510      	push	{r4, lr}
  __ASM volatile ("MSR basepri, %0" : : "r" (value) : "memory");
 8000752:	2320      	movs	r3, #32
 8000754:	f383 8811 	msr	BASEPRI, r3
  if ((ch.dbg.isr_cnt <= (cnt_t)0) || (ch.dbg.lock_cnt != (cnt_t)0)) {
 8000758:	4a07      	ldr	r2, [pc, #28]	; (8000778 <_dbg_check_leave_isr+0x28>)
 800075a:	6b13      	ldr	r3, [r2, #48]	; 0x30
 800075c:	2b00      	cmp	r3, #0
 800075e:	dd02      	ble.n	8000766 <_dbg_check_leave_isr+0x16>
 8000760:	6b51      	ldr	r1, [r2, #52]	; 0x34
 8000762:	2900      	cmp	r1, #0
 8000764:	d002      	beq.n	800076c <_dbg_check_leave_isr+0x1c>
    chSysHalt("SV#9");
 8000766:	4805      	ldr	r0, [pc, #20]	; (800077c <_dbg_check_leave_isr+0x2c>)
 8000768:	f7ff ff2a 	bl	80005c0 <chSysHalt>
  ch.dbg.isr_cnt--;
 800076c:	3b01      	subs	r3, #1
 800076e:	6313      	str	r3, [r2, #48]	; 0x30
 8000770:	2300      	movs	r3, #0
 8000772:	f383 8811 	msr	BASEPRI, r3
}
 8000776:	bd10      	pop	{r4, pc}
 8000778:	2000059c 	.word	0x2000059c
 800077c:	0800206c 	.word	0x0800206c

08000780 <_dbg_check_enter_isr>:
void _dbg_check_enter_isr(void) {
 8000780:	b510      	push	{r4, lr}
 8000782:	2320      	movs	r3, #32
 8000784:	f383 8811 	msr	BASEPRI, r3
  if ((ch.dbg.isr_cnt < (cnt_t)0) || (ch.dbg.lock_cnt != (cnt_t)0)) {
 8000788:	4a07      	ldr	r2, [pc, #28]	; (80007a8 <_dbg_check_enter_isr+0x28>)
 800078a:	6b13      	ldr	r3, [r2, #48]	; 0x30
 800078c:	2b00      	cmp	r3, #0
 800078e:	db02      	blt.n	8000796 <_dbg_check_enter_isr+0x16>
 8000790:	6b51      	ldr	r1, [r2, #52]	; 0x34
 8000792:	2900      	cmp	r1, #0
 8000794:	d002      	beq.n	800079c <_dbg_check_enter_isr+0x1c>
    chSysHalt("SV#8");
 8000796:	4805      	ldr	r0, [pc, #20]	; (80007ac <_dbg_check_enter_isr+0x2c>)
 8000798:	f7ff ff12 	bl	80005c0 <chSysHalt>
  ch.dbg.isr_cnt++;
 800079c:	3301      	adds	r3, #1
 800079e:	6313      	str	r3, [r2, #48]	; 0x30
 80007a0:	2300      	movs	r3, #0
 80007a2:	f383 8811 	msr	BASEPRI, r3
}
 80007a6:	bd10      	pop	{r4, pc}
 80007a8:	2000059c 	.word	0x2000059c
 80007ac:	08002064 	.word	0x08002064

080007b0 <_dbg_check_unlock_from_isr>:
  if ((ch.dbg.isr_cnt <= (cnt_t)0) || (ch.dbg.lock_cnt <= (cnt_t)0)) {
 80007b0:	4b06      	ldr	r3, [pc, #24]	; (80007cc <_dbg_check_unlock_from_isr+0x1c>)
void _dbg_check_unlock_from_isr(void) {
 80007b2:	b510      	push	{r4, lr}
  if ((ch.dbg.isr_cnt <= (cnt_t)0) || (ch.dbg.lock_cnt <= (cnt_t)0)) {
 80007b4:	6b1a      	ldr	r2, [r3, #48]	; 0x30
 80007b6:	2a00      	cmp	r2, #0
 80007b8:	dd05      	ble.n	80007c6 <_dbg_check_unlock_from_isr+0x16>
 80007ba:	6b5a      	ldr	r2, [r3, #52]	; 0x34
 80007bc:	2a00      	cmp	r2, #0
 80007be:	dd02      	ble.n	80007c6 <_dbg_check_unlock_from_isr+0x16>
  _dbg_leave_lock();
 80007c0:	2200      	movs	r2, #0
 80007c2:	635a      	str	r2, [r3, #52]	; 0x34
}
 80007c4:	bd10      	pop	{r4, pc}
    chSysHalt("SV#7");
 80007c6:	4802      	ldr	r0, [pc, #8]	; (80007d0 <_dbg_check_unlock_from_isr+0x20>)
 80007c8:	f7ff fefa 	bl	80005c0 <chSysHalt>
 80007cc:	2000059c 	.word	0x2000059c
 80007d0:	0800208c 	.word	0x0800208c
	...

080007e0 <_dbg_check_lock_from_isr>:
  if ((ch.dbg.isr_cnt <= (cnt_t)0) || (ch.dbg.lock_cnt != (cnt_t)0)) {
 80007e0:	4b06      	ldr	r3, [pc, #24]	; (80007fc <_dbg_check_lock_from_isr+0x1c>)
void _dbg_check_lock_from_isr(void) {
 80007e2:	b510      	push	{r4, lr}
  if ((ch.dbg.isr_cnt <= (cnt_t)0) || (ch.dbg.lock_cnt != (cnt_t)0)) {
 80007e4:	6b1a      	ldr	r2, [r3, #48]	; 0x30
 80007e6:	2a00      	cmp	r2, #0
 80007e8:	dd02      	ble.n	80007f0 <_dbg_check_lock_from_isr+0x10>
 80007ea:	6b5a      	ldr	r2, [r3, #52]	; 0x34
 80007ec:	2a00      	cmp	r2, #0
 80007ee:	d002      	beq.n	80007f6 <_dbg_check_lock_from_isr+0x16>
    chSysHalt("SV#6");
 80007f0:	4803      	ldr	r0, [pc, #12]	; (8000800 <_dbg_check_lock_from_isr+0x20>)
 80007f2:	f7ff fee5 	bl	80005c0 <chSysHalt>
  _dbg_enter_lock();
 80007f6:	2201      	movs	r2, #1
 80007f8:	635a      	str	r2, [r3, #52]	; 0x34
}
 80007fa:	bd10      	pop	{r4, pc}
 80007fc:	2000059c 	.word	0x2000059c
 8000800:	0800207c 	.word	0x0800207c
	...

08000810 <wakeup>:
static void wakeup(void *p) {
 8000810:	b570      	push	{r4, r5, r6, lr}
 8000812:	0004      	movs	r4, r0
 8000814:	2520      	movs	r5, #32
 8000816:	f385 8811 	msr	BASEPRI, r5
 */
static inline void chSysLockFromISR(void) {

  port_lock_from_isr();
  _stats_start_measure_crit_isr();
  _dbg_check_lock_from_isr();
 800081a:	f7ff ffe1 	bl	80007e0 <_dbg_check_lock_from_isr>
  switch (tp->state) {
 800081e:	5d63      	ldrb	r3, [r4, r5]
 8000820:	2b07      	cmp	r3, #7
 8000822:	d80e      	bhi.n	8000842 <wakeup+0x32>
 8000824:	4a12      	ldr	r2, [pc, #72]	; (8000870 <wakeup+0x60>)
 8000826:	009b      	lsls	r3, r3, #2
 8000828:	58d3      	ldr	r3, [r2, r3]
 800082a:	469f      	mov	pc, r3
    chSemFastSignalI(tp->u.wtsemp);
 800082c:	6a65      	ldr	r5, [r4, #36]	; 0x24
 *
 * @iclass
 */
static inline void chSemFastSignalI(semaphore_t *sp) {

  chDbgCheckClassI();
 800082e:	f7ff ff17 	bl	8000660 <chDbgCheckClassI>

  sp->cnt++;
 8000832:	68ab      	ldr	r3, [r5, #8]
 8000834:	3301      	adds	r3, #1
 8000836:	60ab      	str	r3, [r5, #8]
  return tp;
}

static inline thread_t *queue_dequeue(thread_t *tp) {

  tp->queue.prev->queue.next = tp->queue.next;
 8000838:	6822      	ldr	r2, [r4, #0]
 800083a:	6863      	ldr	r3, [r4, #4]
 800083c:	601a      	str	r2, [r3, #0]
  tp->queue.next->queue.prev = tp->queue.prev;
 800083e:	6822      	ldr	r2, [r4, #0]
 8000840:	6053      	str	r3, [r2, #4]
  tp->u.rdymsg = MSG_TIMEOUT;
 8000842:	2301      	movs	r3, #1
 8000844:	425b      	negs	r3, r3
 8000846:	6263      	str	r3, [r4, #36]	; 0x24
  (void) chSchReadyI(tp);
 8000848:	0020      	movs	r0, r4
 800084a:	f7ff ff59 	bl	8000700 <chSchReadyI>
 *
 * @special
 */
static inline void chSysUnlockFromISR(void) {

  _dbg_check_unlock_from_isr();
 800084e:	f7ff ffaf 	bl	80007b0 <_dbg_check_unlock_from_isr>
 8000852:	2300      	movs	r3, #0
 8000854:	f383 8811 	msr	BASEPRI, r3
}
 8000858:	bd70      	pop	{r4, r5, r6, pc}
    *tp->u.wttrp = NULL;
 800085a:	2200      	movs	r2, #0
 800085c:	6a63      	ldr	r3, [r4, #36]	; 0x24
  (void) chSchReadyI(tp);
 800085e:	0020      	movs	r0, r4
    *tp->u.wttrp = NULL;
 8000860:	601a      	str	r2, [r3, #0]
  tp->u.rdymsg = MSG_TIMEOUT;
 8000862:	2301      	movs	r3, #1
 8000864:	425b      	negs	r3, r3
 8000866:	6263      	str	r3, [r4, #36]	; 0x24
  (void) chSchReadyI(tp);
 8000868:	f7ff ff4a 	bl	8000700 <chSchReadyI>
 800086c:	e7ef      	b.n	800084e <wakeup+0x3e>
 800086e:	46c0      	nop			; (mov r8, r8)
 8000870:	08001f5c 	.word	0x08001f5c
	...

08000880 <_dbg_check_unlock>:
  if ((ch.dbg.isr_cnt != (cnt_t)0) || (ch.dbg.lock_cnt <= (cnt_t)0)) {
 8000880:	4b06      	ldr	r3, [pc, #24]	; (800089c <_dbg_check_unlock+0x1c>)
void _dbg_check_unlock(void) {
 8000882:	b510      	push	{r4, lr}
  if ((ch.dbg.isr_cnt != (cnt_t)0) || (ch.dbg.lock_cnt <= (cnt_t)0)) {
 8000884:	6b1a      	ldr	r2, [r3, #48]	; 0x30
 8000886:	2a00      	cmp	r2, #0
 8000888:	d104      	bne.n	8000894 <_dbg_check_unlock+0x14>
 800088a:	6b59      	ldr	r1, [r3, #52]	; 0x34
 800088c:	2900      	cmp	r1, #0
 800088e:	dd01      	ble.n	8000894 <_dbg_check_unlock+0x14>
  _dbg_leave_lock();
 8000890:	635a      	str	r2, [r3, #52]	; 0x34
}
 8000892:	bd10      	pop	{r4, pc}
    chSysHalt("SV#5");
 8000894:	4802      	ldr	r0, [pc, #8]	; (80008a0 <_dbg_check_unlock+0x20>)
 8000896:	f7ff fe93 	bl	80005c0 <chSysHalt>
 800089a:	46c0      	nop			; (mov r8, r8)
 800089c:	2000059c 	.word	0x2000059c
 80008a0:	08002084 	.word	0x08002084
	...

080008b0 <chSysUnlock.lto_priv.24>:
static inline void chSysUnlock(void) {
 80008b0:	b510      	push	{r4, lr}
  _dbg_check_unlock();
 80008b2:	f7ff ffe5 	bl	8000880 <_dbg_check_unlock>
  chDbgAssert((ch.rlist.queue.next == (thread_t *)&ch.rlist.queue) ||
 80008b6:	4b08      	ldr	r3, [pc, #32]	; (80008d8 <chSysUnlock.lto_priv.24+0x28>)
 80008b8:	681a      	ldr	r2, [r3, #0]
 80008ba:	429a      	cmp	r2, r3
 80008bc:	d004      	beq.n	80008c8 <chSysUnlock.lto_priv.24+0x18>
 80008be:	699b      	ldr	r3, [r3, #24]
 80008c0:	6899      	ldr	r1, [r3, #8]
 80008c2:	6893      	ldr	r3, [r2, #8]
 80008c4:	4299      	cmp	r1, r3
 80008c6:	d303      	bcc.n	80008d0 <chSysUnlock.lto_priv.24+0x20>
 80008c8:	2300      	movs	r3, #0
 80008ca:	f383 8811 	msr	BASEPRI, r3
}
 80008ce:	bd10      	pop	{r4, pc}
  chDbgAssert((ch.rlist.queue.next == (thread_t *)&ch.rlist.queue) ||
 80008d0:	4802      	ldr	r0, [pc, #8]	; (80008dc <chSysUnlock.lto_priv.24+0x2c>)
 80008d2:	f7ff fe75 	bl	80005c0 <chSysHalt>
 80008d6:	46c0      	nop			; (mov r8, r8)
 80008d8:	2000059c 	.word	0x2000059c
 80008dc:	08001f7c 	.word	0x08001f7c

080008e0 <_dbg_check_lock>:
  if ((ch.dbg.isr_cnt != (cnt_t)0) || (ch.dbg.lock_cnt != (cnt_t)0)) {
 80008e0:	4b06      	ldr	r3, [pc, #24]	; (80008fc <_dbg_check_lock+0x1c>)
void _dbg_check_lock(void) {
 80008e2:	b510      	push	{r4, lr}
  if ((ch.dbg.isr_cnt != (cnt_t)0) || (ch.dbg.lock_cnt != (cnt_t)0)) {
 80008e4:	6b1a      	ldr	r2, [r3, #48]	; 0x30
 80008e6:	2a00      	cmp	r2, #0
 80008e8:	d102      	bne.n	80008f0 <_dbg_check_lock+0x10>
 80008ea:	6b5a      	ldr	r2, [r3, #52]	; 0x34
 80008ec:	2a00      	cmp	r2, #0
 80008ee:	d002      	beq.n	80008f6 <_dbg_check_lock+0x16>
    chSysHalt("SV#4");
 80008f0:	4803      	ldr	r0, [pc, #12]	; (8000900 <_dbg_check_lock+0x20>)
 80008f2:	f7ff fe65 	bl	80005c0 <chSysHalt>
  _dbg_enter_lock();
 80008f6:	2201      	movs	r2, #1
 80008f8:	635a      	str	r2, [r3, #52]	; 0x34
}
 80008fa:	bd10      	pop	{r4, pc}
 80008fc:	2000059c 	.word	0x2000059c
 8000900:	08002074 	.word	0x08002074
	...

08000910 <chCoreAllocAligned>:
 * @return              A pointer to the allocated memory block.
 * @retval NULL         allocation failed, core memory exhausted.
 *
 * @api
 */
void *chCoreAllocAligned(size_t size, unsigned align) {
 8000910:	b570      	push	{r4, r5, r6, lr}
 8000912:	2320      	movs	r3, #32
 8000914:	0005      	movs	r5, r0
 8000916:	000c      	movs	r4, r1
 8000918:	f383 8811 	msr	BASEPRI, r3
  _dbg_check_lock();
 800091c:	f7ff ffe0 	bl	80008e0 <_dbg_check_lock>
  chDbgCheckClassI();
 8000920:	f7ff fe9e 	bl	8000660 <chDbgCheckClassI>
  chDbgCheck(MEM_IS_VALID_ALIGNMENT(align));
 8000924:	2c00      	cmp	r4, #0
 8000926:	d021      	beq.n	800096c <chCoreAllocAligned+0x5c>
 8000928:	1e62      	subs	r2, r4, #1
 800092a:	4222      	tst	r2, r4
 800092c:	d11e      	bne.n	800096c <chCoreAllocAligned+0x5c>
  p = (uint8_t *)MEM_ALIGN_NEXT(nextmem, align);
 800092e:	4913      	ldr	r1, [pc, #76]	; (800097c <chCoreAllocAligned+0x6c>)
  size = MEM_ALIGN_NEXT(size, align);
 8000930:	18ad      	adds	r5, r5, r2
  p = (uint8_t *)MEM_ALIGN_NEXT(nextmem, align);
 8000932:	680a      	ldr	r2, [r1, #0]
  size = MEM_ALIGN_NEXT(size, align);
 8000934:	4263      	negs	r3, r4
  p = (uint8_t *)MEM_ALIGN_NEXT(nextmem, align);
 8000936:	3a01      	subs	r2, #1
 8000938:	1914      	adds	r4, r2, r4
 800093a:	401c      	ands	r4, r3
  size = MEM_ALIGN_NEXT(size, align);
 800093c:	401d      	ands	r5, r3
  if (((size_t)endmem - (size_t)p) < size) {
 800093e:	4b10      	ldr	r3, [pc, #64]	; (8000980 <chCoreAllocAligned+0x70>)
 8000940:	681b      	ldr	r3, [r3, #0]
 8000942:	1b1b      	subs	r3, r3, r4
 8000944:	429d      	cmp	r5, r3
 8000946:	d817      	bhi.n	8000978 <chCoreAllocAligned+0x68>
  nextmem = p + size;
 8000948:	1965      	adds	r5, r4, r5
 800094a:	600d      	str	r5, [r1, #0]
  _dbg_check_unlock();
 800094c:	f7ff ff98 	bl	8000880 <_dbg_check_unlock>
  chDbgAssert((ch.rlist.queue.next == (thread_t *)&ch.rlist.queue) ||
 8000950:	4b0c      	ldr	r3, [pc, #48]	; (8000984 <chCoreAllocAligned+0x74>)
 8000952:	681a      	ldr	r2, [r3, #0]
 8000954:	429a      	cmp	r2, r3
 8000956:	d004      	beq.n	8000962 <chCoreAllocAligned+0x52>
 8000958:	699b      	ldr	r3, [r3, #24]
 800095a:	6899      	ldr	r1, [r3, #8]
 800095c:	6893      	ldr	r3, [r2, #8]
 800095e:	4299      	cmp	r1, r3
 8000960:	d307      	bcc.n	8000972 <chCoreAllocAligned+0x62>
 8000962:	2300      	movs	r3, #0
 8000964:	f383 8811 	msr	BASEPRI, r3
  chSysLock();
  p = chCoreAllocAlignedI(size, align);
  chSysUnlock();

  return p;
}
 8000968:	0020      	movs	r0, r4
 800096a:	bd70      	pop	{r4, r5, r6, pc}
  chDbgCheck(MEM_IS_VALID_ALIGNMENT(align));
 800096c:	4806      	ldr	r0, [pc, #24]	; (8000988 <chCoreAllocAligned+0x78>)
 800096e:	f7ff fe27 	bl	80005c0 <chSysHalt>
 8000972:	4806      	ldr	r0, [pc, #24]	; (800098c <chCoreAllocAligned+0x7c>)
 8000974:	f7ff fe24 	bl	80005c0 <chSysHalt>
    return NULL;
 8000978:	2400      	movs	r4, #0
 800097a:	e7e7      	b.n	800094c <chCoreAllocAligned+0x3c>
 800097c:	2000057c 	.word	0x2000057c
 8000980:	20000578 	.word	0x20000578
 8000984:	2000059c 	.word	0x2000059c
 8000988:	08001fdc 	.word	0x08001fdc
 800098c:	08001f94 	.word	0x08001f94

08000990 <chRegFindThreadByWorkingArea>:
 * @return              A pointer to the found thread.
 * @retval NULL         if a matching thread has not been found.
 *
 * @api
 */
thread_t *chRegFindThreadByWorkingArea(stkalign_t *wa) {
 8000990:	b5f0      	push	{r4, r5, r6, r7, lr}
 8000992:	464e      	mov	r6, r9
 8000994:	46de      	mov	lr, fp
 8000996:	4657      	mov	r7, sl
 8000998:	4645      	mov	r5, r8
 800099a:	b5e0      	push	{r5, r6, r7, lr}
 800099c:	2320      	movs	r3, #32
 800099e:	b085      	sub	sp, #20
 80009a0:	0006      	movs	r6, r0
 80009a2:	f383 8811 	msr	BASEPRI, r3
  _dbg_check_lock();
 80009a6:	f7ff ff9b 	bl	80008e0 <_dbg_check_lock>
  tp->refs++;
 80009aa:	2222      	movs	r2, #34	; 0x22
  tp = ch.rlist.newer;
 80009ac:	4cc2      	ldr	r4, [pc, #776]	; (8000cb8 <chRegFindThreadByWorkingArea+0x328>)
 80009ae:	6927      	ldr	r7, [r4, #16]
  tp->refs++;
 80009b0:	5cbb      	ldrb	r3, [r7, r2]
 80009b2:	3301      	adds	r3, #1
 80009b4:	54bb      	strb	r3, [r7, r2]
  _dbg_check_unlock();
 80009b6:	f7ff ff63 	bl	8000880 <_dbg_check_unlock>
  chDbgAssert((ch.rlist.queue.next == (thread_t *)&ch.rlist.queue) ||
 80009ba:	6823      	ldr	r3, [r4, #0]
 80009bc:	42a3      	cmp	r3, r4
 80009be:	d004      	beq.n	80009ca <chRegFindThreadByWorkingArea+0x3a>
 80009c0:	69a2      	ldr	r2, [r4, #24]
 80009c2:	689b      	ldr	r3, [r3, #8]
 80009c4:	6892      	ldr	r2, [r2, #8]
 80009c6:	429a      	cmp	r2, r3
 80009c8:	d34f      	bcc.n	8000a6a <chRegFindThreadByWorkingArea+0xda>
 80009ca:	2300      	movs	r3, #0
 80009cc:	f383 8811 	msr	BASEPRI, r3
  if ((tp->refs == (trefs_t)0) && (tp->state == CH_STATE_FINAL)) {
    REG_REMOVE(tp);
    chSysUnlock();

#if CH_CFG_USE_DYNAMIC == TRUE
    switch (tp->flags & CH_FLAG_MODE_MASK) {
 80009d0:	3321      	adds	r3, #33	; 0x21
 80009d2:	4699      	mov	r9, r3
 80009d4:	3b1e      	subs	r3, #30
 80009d6:	469a      	mov	sl, r3
 */
void chHeapFree(void *p) {
  heap_header_t *qp, *hp;
  memory_heap_t *heapp;

  chDbgCheck((p != NULL) && MEM_IS_ALIGNED(p, CH_HEAP_ALIGNMENT));
 80009d8:	3304      	adds	r3, #4
 80009da:	469b      	mov	fp, r3
  thread_t *ctp;

  /* Scanning registry.*/
  ctp = chRegFirstThread();
  do {
    if (chThdGetWorkingAreaX(ctp) == wa) {
 80009dc:	69fb      	ldr	r3, [r7, #28]
 80009de:	429e      	cmp	r6, r3
 80009e0:	d100      	bne.n	80009e4 <chRegFindThreadByWorkingArea+0x54>
 80009e2:	e0e6      	b.n	8000bb2 <chRegFindThreadByWorkingArea+0x222>
 80009e4:	2320      	movs	r3, #32
 80009e6:	f383 8811 	msr	BASEPRI, r3
  _dbg_check_lock();
 80009ea:	f7ff ff79 	bl	80008e0 <_dbg_check_lock>
  ntp = tp->newer;
 80009ee:	693d      	ldr	r5, [r7, #16]
  if (ntp == (thread_t *)&ch.rlist) {
 80009f0:	42a5      	cmp	r5, r4
 80009f2:	d100      	bne.n	80009f6 <chRegFindThreadByWorkingArea+0x66>
 80009f4:	e0df      	b.n	8000bb6 <chRegFindThreadByWorkingArea+0x226>
    chDbgAssert(ntp->refs < (trefs_t)255, "too many references");
 80009f6:	2222      	movs	r2, #34	; 0x22
 80009f8:	5cab      	ldrb	r3, [r5, r2]
 80009fa:	2bff      	cmp	r3, #255	; 0xff
 80009fc:	d04d      	beq.n	8000a9a <chRegFindThreadByWorkingArea+0x10a>
    ntp->refs++;
 80009fe:	3301      	adds	r3, #1
 8000a00:	54ab      	strb	r3, [r5, r2]
  _dbg_check_unlock();
 8000a02:	f7ff ff3d 	bl	8000880 <_dbg_check_unlock>
  chDbgAssert((ch.rlist.queue.next == (thread_t *)&ch.rlist.queue) ||
 8000a06:	6823      	ldr	r3, [r4, #0]
 8000a08:	42a3      	cmp	r3, r4
 8000a0a:	d004      	beq.n	8000a16 <chRegFindThreadByWorkingArea+0x86>
 8000a0c:	69a2      	ldr	r2, [r4, #24]
 8000a0e:	689b      	ldr	r3, [r3, #8]
 8000a10:	6892      	ldr	r2, [r2, #8]
 8000a12:	429a      	cmp	r2, r3
 8000a14:	d329      	bcc.n	8000a6a <chRegFindThreadByWorkingArea+0xda>
 8000a16:	2300      	movs	r3, #0
 8000a18:	f383 8811 	msr	BASEPRI, r3
 8000a1c:	3320      	adds	r3, #32
 8000a1e:	f383 8811 	msr	BASEPRI, r3
  _dbg_check_lock();
 8000a22:	f7ff ff5d 	bl	80008e0 <_dbg_check_lock>
  chDbgAssert(tp->refs > (trefs_t)0, "not referenced");
 8000a26:	2222      	movs	r2, #34	; 0x22
 8000a28:	5cbb      	ldrb	r3, [r7, r2]
 8000a2a:	2b00      	cmp	r3, #0
 8000a2c:	d032      	beq.n	8000a94 <chRegFindThreadByWorkingArea+0x104>
  tp->refs--;
 8000a2e:	3b01      	subs	r3, #1
 8000a30:	54bb      	strb	r3, [r7, r2]
  if ((tp->refs == (trefs_t)0) && (tp->state == CH_STATE_FINAL)) {
 8000a32:	6a3a      	ldr	r2, [r7, #32]
 8000a34:	4ba1      	ldr	r3, [pc, #644]	; (8000cbc <chRegFindThreadByWorkingArea+0x32c>)
 8000a36:	4013      	ands	r3, r2
 8000a38:	2b0f      	cmp	r3, #15
 8000a3a:	d019      	beq.n	8000a70 <chRegFindThreadByWorkingArea+0xe0>
  _dbg_check_unlock();
 8000a3c:	f7ff ff20 	bl	8000880 <_dbg_check_unlock>
  chDbgAssert((ch.rlist.queue.next == (thread_t *)&ch.rlist.queue) ||
 8000a40:	6823      	ldr	r3, [r4, #0]
 8000a42:	42a3      	cmp	r3, r4
 8000a44:	d004      	beq.n	8000a50 <chRegFindThreadByWorkingArea+0xc0>
 8000a46:	69a2      	ldr	r2, [r4, #24]
 8000a48:	689b      	ldr	r3, [r3, #8]
 8000a4a:	6892      	ldr	r2, [r2, #8]
 8000a4c:	429a      	cmp	r2, r3
 8000a4e:	d31e      	bcc.n	8000a8e <chRegFindThreadByWorkingArea+0xfe>
 8000a50:	2300      	movs	r3, #0
 8000a52:	f383 8811 	msr	BASEPRI, r3
 8000a56:	1e2f      	subs	r7, r5, #0
      return ctp;
    }
    ctp = chRegNextThread(ctp);
  } while (ctp != NULL);
 8000a58:	d1c0      	bne.n	80009dc <chRegFindThreadByWorkingArea+0x4c>

  return NULL;
}
 8000a5a:	0028      	movs	r0, r5
 8000a5c:	b005      	add	sp, #20
 8000a5e:	bc3c      	pop	{r2, r3, r4, r5}
 8000a60:	4690      	mov	r8, r2
 8000a62:	4699      	mov	r9, r3
 8000a64:	46a2      	mov	sl, r4
 8000a66:	46ab      	mov	fp, r5
 8000a68:	bdf0      	pop	{r4, r5, r6, r7, pc}
 8000a6a:	4895      	ldr	r0, [pc, #596]	; (8000cc0 <chRegFindThreadByWorkingArea+0x330>)
 8000a6c:	f7ff fda8 	bl	80005c0 <chSysHalt>
    REG_REMOVE(tp);
 8000a70:	697b      	ldr	r3, [r7, #20]
 8000a72:	693a      	ldr	r2, [r7, #16]
 8000a74:	611a      	str	r2, [r3, #16]
 8000a76:	693a      	ldr	r2, [r7, #16]
 8000a78:	6153      	str	r3, [r2, #20]
  _dbg_check_unlock();
 8000a7a:	f7ff ff01 	bl	8000880 <_dbg_check_unlock>
  chDbgAssert((ch.rlist.queue.next == (thread_t *)&ch.rlist.queue) ||
 8000a7e:	6823      	ldr	r3, [r4, #0]
 8000a80:	42a3      	cmp	r3, r4
 8000a82:	d00d      	beq.n	8000aa0 <chRegFindThreadByWorkingArea+0x110>
 8000a84:	69a2      	ldr	r2, [r4, #24]
 8000a86:	689b      	ldr	r3, [r3, #8]
 8000a88:	6892      	ldr	r2, [r2, #8]
 8000a8a:	429a      	cmp	r2, r3
 8000a8c:	d208      	bcs.n	8000aa0 <chRegFindThreadByWorkingArea+0x110>
 8000a8e:	488d      	ldr	r0, [pc, #564]	; (8000cc4 <chRegFindThreadByWorkingArea+0x334>)
 8000a90:	f7ff fd96 	bl	80005c0 <chSysHalt>
  chDbgAssert(tp->refs > (trefs_t)0, "not referenced");
 8000a94:	488c      	ldr	r0, [pc, #560]	; (8000cc8 <chRegFindThreadByWorkingArea+0x338>)
 8000a96:	f7ff fd93 	bl	80005c0 <chSysHalt>
    chDbgAssert(ntp->refs < (trefs_t)255, "too many references");
 8000a9a:	488c      	ldr	r0, [pc, #560]	; (8000ccc <chRegFindThreadByWorkingArea+0x33c>)
 8000a9c:	f7ff fd90 	bl	80005c0 <chSysHalt>
 8000aa0:	2300      	movs	r3, #0
 8000aa2:	f383 8811 	msr	BASEPRI, r3
    switch (tp->flags & CH_FLAG_MODE_MASK) {
 8000aa6:	464b      	mov	r3, r9
 8000aa8:	4652      	mov	r2, sl
 8000aaa:	5cfb      	ldrb	r3, [r7, r3]
 8000aac:	4013      	ands	r3, r2
 8000aae:	2b01      	cmp	r3, #1
 8000ab0:	d022      	beq.n	8000af8 <chRegFindThreadByWorkingArea+0x168>
 8000ab2:	2b02      	cmp	r3, #2
 8000ab4:	d1cf      	bne.n	8000a56 <chRegFindThreadByWorkingArea+0xc6>
      chHeapFree(chThdGetWorkingAreaX(tp));
      break;
#endif
#if CH_CFG_USE_MEMPOOLS == TRUE
    case CH_FLAG_MODE_MPOOL:
      chPoolFree(tp->mpool, chThdGetWorkingAreaX(tp));
 8000ab6:	6c3b      	ldr	r3, [r7, #64]	; 0x40
 8000ab8:	69ff      	ldr	r7, [r7, #28]
 8000aba:	4698      	mov	r8, r3
 8000abc:	2320      	movs	r3, #32
 8000abe:	f383 8811 	msr	BASEPRI, r3
  _dbg_check_lock();
 8000ac2:	f7ff ff0d 	bl	80008e0 <_dbg_check_lock>
 * @iclass
 */
void chPoolFreeI(memory_pool_t *mp, void *objp) {
  struct pool_header *php = objp;

  chDbgCheckClassI();
 8000ac6:	f7ff fdcb 	bl	8000660 <chDbgCheckClassI>
  chDbgCheck((mp != NULL) && (objp != NULL));
 8000aca:	4643      	mov	r3, r8
 8000acc:	2b00      	cmp	r3, #0
 8000ace:	d077      	beq.n	8000bc0 <chRegFindThreadByWorkingArea+0x230>
 8000ad0:	2f00      	cmp	r7, #0
 8000ad2:	d075      	beq.n	8000bc0 <chRegFindThreadByWorkingArea+0x230>

  php->next = mp->next;
 8000ad4:	4643      	mov	r3, r8
 8000ad6:	681b      	ldr	r3, [r3, #0]
 8000ad8:	603b      	str	r3, [r7, #0]
  mp->next = php;
 8000ada:	4643      	mov	r3, r8
 8000adc:	601f      	str	r7, [r3, #0]
  _dbg_check_unlock();
 8000ade:	f7ff fecf 	bl	8000880 <_dbg_check_unlock>
  chDbgAssert((ch.rlist.queue.next == (thread_t *)&ch.rlist.queue) ||
 8000ae2:	6823      	ldr	r3, [r4, #0]
 8000ae4:	42a3      	cmp	r3, r4
 8000ae6:	d0b3      	beq.n	8000a50 <chRegFindThreadByWorkingArea+0xc0>
 8000ae8:	69a2      	ldr	r2, [r4, #24]
 8000aea:	689b      	ldr	r3, [r3, #8]
 8000aec:	6892      	ldr	r2, [r2, #8]
 8000aee:	429a      	cmp	r2, r3
 8000af0:	d2ae      	bcs.n	8000a50 <chRegFindThreadByWorkingArea+0xc0>
 8000af2:	4877      	ldr	r0, [pc, #476]	; (8000cd0 <chRegFindThreadByWorkingArea+0x340>)
 8000af4:	f7ff fd64 	bl	80005c0 <chSysHalt>
 8000af8:	69fb      	ldr	r3, [r7, #28]
 8000afa:	2b00      	cmp	r3, #0
 8000afc:	d05d      	beq.n	8000bba <chRegFindThreadByWorkingArea+0x22a>
 8000afe:	465a      	mov	r2, fp
 8000b00:	4213      	tst	r3, r2
 8000b02:	d15a      	bne.n	8000bba <chRegFindThreadByWorkingArea+0x22a>

  /*lint -save -e9087 [11.3] Safe cast.*/
  hp = (heap_header_t *)p - 1U;
  /*lint -restore*/
  heapp = H_HEAP(hp);
 8000b04:	2208      	movs	r2, #8
 8000b06:	4252      	negs	r2, r2
 8000b08:	4690      	mov	r8, r2
 8000b0a:	4498      	add	r8, r3
 8000b0c:	4643      	mov	r3, r8
 8000b0e:	681b      	ldr	r3, [r3, #0]
  qp = &heapp->header;

  /* Size is converted in number of elementary allocation units.*/
  H_PAGES(hp) = MEM_ALIGN_NEXT(H_SIZE(hp),
 8000b10:	4641      	mov	r1, r8
  heapp = H_HEAP(hp);
 8000b12:	001a      	movs	r2, r3
 8000b14:	9301      	str	r3, [sp, #4]
  H_PAGES(hp) = MEM_ALIGN_NEXT(H_SIZE(hp),
 8000b16:	4643      	mov	r3, r8
 8000b18:	685b      	ldr	r3, [r3, #4]
 8000b1a:	3307      	adds	r3, #7
                               CH_HEAP_ALIGNMENT) / CH_HEAP_ALIGNMENT;
 8000b1c:	08db      	lsrs	r3, r3, #3
  H_PAGES(hp) = MEM_ALIGN_NEXT(H_SIZE(hp),
 8000b1e:	604b      	str	r3, [r1, #4]

  /* Taking heap mutex/semaphore.*/
  H_LOCK(heapp);
 8000b20:	0013      	movs	r3, r2
 8000b22:	3310      	adds	r3, #16
 8000b24:	9300      	str	r3, [sp, #0]
 8000b26:	2220      	movs	r2, #32
 8000b28:	f382 8811 	msr	BASEPRI, r2
  _dbg_check_lock();
 8000b2c:	f7ff fed8 	bl	80008e0 <_dbg_check_lock>
 * @sclass
 */
void chMtxLockS(mutex_t *mp) {
  thread_t *ctp = currp;

  chDbgCheckClassS();
 8000b30:	f7ff fd5e 	bl	80005f0 <chDbgCheckClassS>
  chDbgCheck(mp != NULL);
 8000b34:	9b00      	ldr	r3, [sp, #0]
  thread_t *ctp = currp;
 8000b36:	69a7      	ldr	r7, [r4, #24]
  chDbgCheck(mp != NULL);
 8000b38:	2b00      	cmp	r3, #0
 8000b3a:	d037      	beq.n	8000bac <chRegFindThreadByWorkingArea+0x21c>

  /* Is the mutex already locked? */
  if (mp->owner != NULL) {
 8000b3c:	9b01      	ldr	r3, [sp, #4]
 8000b3e:	6998      	ldr	r0, [r3, #24]
 8000b40:	2800      	cmp	r0, #0
 8000b42:	d100      	bne.n	8000b46 <chRegFindThreadByWorkingArea+0x1b6>
 8000b44:	e0ce      	b.n	8000ce4 <chRegFindThreadByWorkingArea+0x354>
      while (tp->prio < ctp->prio) {
        /* Make priority of thread tp match the running thread's priority.*/
        tp->prio = ctp->prio;

        /* The following states need priority queues reordering.*/
        switch (tp->state) {
 8000b46:	2320      	movs	r3, #32
 8000b48:	469c      	mov	ip, r3
      while (tp->prio < ctp->prio) {
 8000b4a:	68ba      	ldr	r2, [r7, #8]
 8000b4c:	6883      	ldr	r3, [r0, #8]
 8000b4e:	429a      	cmp	r2, r3
 8000b50:	d912      	bls.n	8000b78 <chRegFindThreadByWorkingArea+0x1e8>
        switch (tp->state) {
 8000b52:	4663      	mov	r3, ip
        tp->prio = ctp->prio;
 8000b54:	6082      	str	r2, [r0, #8]
        switch (tp->state) {
 8000b56:	5cc3      	ldrb	r3, [r0, r3]
 8000b58:	2b06      	cmp	r3, #6
 8000b5a:	d04a      	beq.n	8000bf2 <chRegFindThreadByWorkingArea+0x262>
 8000b5c:	2b07      	cmp	r3, #7
 8000b5e:	d032      	beq.n	8000bc6 <chRegFindThreadByWorkingArea+0x236>
 8000b60:	2b00      	cmp	r3, #0
 8000b62:	d109      	bne.n	8000b78 <chRegFindThreadByWorkingArea+0x1e8>
          break;
#endif
        case CH_STATE_READY:
#if CH_DBG_ENABLE_ASSERTS == TRUE
          /* Prevents an assertion in chSchReadyI().*/
          tp->state = CH_STATE_CURRENT;
 8000b64:	2301      	movs	r3, #1
 8000b66:	2220      	movs	r2, #32
 8000b68:	5483      	strb	r3, [r0, r2]
  tp->queue.prev->queue.next = tp->queue.next;
 8000b6a:	6802      	ldr	r2, [r0, #0]
 8000b6c:	6843      	ldr	r3, [r0, #4]
 8000b6e:	601a      	str	r2, [r3, #0]
  tp->queue.next->queue.prev = tp->queue.prev;
 8000b70:	6802      	ldr	r2, [r0, #0]
 8000b72:	6053      	str	r3, [r2, #4]
#endif
          /* Re-enqueues tp with its new priority on the ready list.*/
          (void) chSchReadyI(queue_dequeue(tp));
 8000b74:	f7ff fdc4 	bl	8000700 <chSchReadyI>
  } while ((cp != (thread_t *)tqp) && (cp->prio >= tp->prio));
 8000b78:	9a00      	ldr	r2, [sp, #0]
 8000b7a:	0013      	movs	r3, r2
 8000b7c:	e003      	b.n	8000b86 <chRegFindThreadByWorkingArea+0x1f6>
 8000b7e:	6899      	ldr	r1, [r3, #8]
 8000b80:	68b8      	ldr	r0, [r7, #8]
 8000b82:	4281      	cmp	r1, r0
 8000b84:	d303      	bcc.n	8000b8e <chRegFindThreadByWorkingArea+0x1fe>
    cp = cp->queue.next;
 8000b86:	681b      	ldr	r3, [r3, #0]
  } while ((cp != (thread_t *)tqp) && (cp->prio >= tp->prio));
 8000b88:	429a      	cmp	r2, r3
 8000b8a:	d1f8      	bne.n	8000b7e <chRegFindThreadByWorkingArea+0x1ee>
 8000b8c:	9b00      	ldr	r3, [sp, #0]
  tp->queue.prev             = cp->queue.prev;
 8000b8e:	685a      	ldr	r2, [r3, #4]
  tp->queue.next             = cp;
 8000b90:	603b      	str	r3, [r7, #0]
  tp->queue.prev             = cp->queue.prev;
 8000b92:	607a      	str	r2, [r7, #4]
  tp->queue.prev->queue.next = tp;
 8000b94:	6017      	str	r7, [r2, #0]
  cp->queue.prev             = tp;
 8000b96:	605f      	str	r7, [r3, #4]
        break;
      }

      /* Sleep on the mutex.*/
      queue_prio_insert(ctp, &mp->queue);
      ctp->u.wtmtxp = mp;
 8000b98:	9b00      	ldr	r3, [sp, #0]
      chSchGoSleepS(CH_STATE_WTMTX);
 8000b9a:	2006      	movs	r0, #6
      ctp->u.wtmtxp = mp;
 8000b9c:	627b      	str	r3, [r7, #36]	; 0x24
      chSchGoSleepS(CH_STATE_WTMTX);
 8000b9e:	f7ff fd37 	bl	8000610 <chSchGoSleepS>

      /* It is assumed that the thread performing the unlock operation assigns
         the mutex to this thread.*/
      chDbgAssert(mp->owner == ctp, "not owner");
 8000ba2:	9b01      	ldr	r3, [sp, #4]
 8000ba4:	699b      	ldr	r3, [r3, #24]
 8000ba6:	9302      	str	r3, [sp, #8]
 8000ba8:	429f      	cmp	r7, r3
 8000baa:	d039      	beq.n	8000c20 <chRegFindThreadByWorkingArea+0x290>
  chDbgCheck(mp != NULL);
 8000bac:	4849      	ldr	r0, [pc, #292]	; (8000cd4 <chRegFindThreadByWorkingArea+0x344>)
 8000bae:	f7ff fd07 	bl	80005c0 <chSysHalt>
    if (chThdGetWorkingAreaX(ctp) == wa) {
 8000bb2:	003d      	movs	r5, r7
 8000bb4:	e751      	b.n	8000a5a <chRegFindThreadByWorkingArea+0xca>
    ntp = NULL;
 8000bb6:	2500      	movs	r5, #0
 8000bb8:	e723      	b.n	8000a02 <chRegFindThreadByWorkingArea+0x72>
  chDbgCheck((p != NULL) && MEM_IS_ALIGNED(p, CH_HEAP_ALIGNMENT));
 8000bba:	4847      	ldr	r0, [pc, #284]	; (8000cd8 <chRegFindThreadByWorkingArea+0x348>)
 8000bbc:	f7ff fd00 	bl	80005c0 <chSysHalt>
  chDbgCheck((mp != NULL) && (objp != NULL));
 8000bc0:	4846      	ldr	r0, [pc, #280]	; (8000cdc <chRegFindThreadByWorkingArea+0x34c>)
 8000bc2:	f7ff fcfd 	bl	80005c0 <chSysHalt>
  tp->queue.prev->queue.next = tp->queue.next;
 8000bc6:	6843      	ldr	r3, [r0, #4]
 8000bc8:	6801      	ldr	r1, [r0, #0]
          queue_prio_insert(queue_dequeue(tp), &tp->u.wtmtxp->queue);
 8000bca:	4684      	mov	ip, r0
 8000bcc:	6019      	str	r1, [r3, #0]
  tp->queue.next->queue.prev = tp->queue.prev;
 8000bce:	6801      	ldr	r1, [r0, #0]
 8000bd0:	604b      	str	r3, [r1, #4]
 8000bd2:	6a41      	ldr	r1, [r0, #36]	; 0x24
 8000bd4:	000b      	movs	r3, r1
 8000bd6:	e002      	b.n	8000bde <chRegFindThreadByWorkingArea+0x24e>
  } while ((cp != (thread_t *)tqp) && (cp->prio >= tp->prio));
 8000bd8:	6898      	ldr	r0, [r3, #8]
 8000bda:	4282      	cmp	r2, r0
 8000bdc:	d802      	bhi.n	8000be4 <chRegFindThreadByWorkingArea+0x254>
    cp = cp->queue.next;
 8000bde:	681b      	ldr	r3, [r3, #0]
  } while ((cp != (thread_t *)tqp) && (cp->prio >= tp->prio));
 8000be0:	4299      	cmp	r1, r3
 8000be2:	d1f9      	bne.n	8000bd8 <chRegFindThreadByWorkingArea+0x248>
 8000be4:	4660      	mov	r0, ip
  tp->queue.prev             = cp->queue.prev;
 8000be6:	685a      	ldr	r2, [r3, #4]
  tp->queue.next             = cp;
 8000be8:	6003      	str	r3, [r0, #0]
  tp->queue.prev             = cp->queue.prev;
 8000bea:	6042      	str	r2, [r0, #4]
  tp->queue.prev->queue.next = tp;
 8000bec:	6010      	str	r0, [r2, #0]
  cp->queue.prev             = tp;
 8000bee:	6058      	str	r0, [r3, #4]
 8000bf0:	e7c2      	b.n	8000b78 <chRegFindThreadByWorkingArea+0x1e8>
  tp->queue.prev->queue.next = tp->queue.next;
 8000bf2:	6841      	ldr	r1, [r0, #4]
 8000bf4:	6803      	ldr	r3, [r0, #0]
          queue_prio_insert(queue_dequeue(tp), &tp->u.wtmtxp->queue);
 8000bf6:	9002      	str	r0, [sp, #8]
 8000bf8:	600b      	str	r3, [r1, #0]
  tp->queue.next->queue.prev = tp->queue.prev;
 8000bfa:	6803      	ldr	r3, [r0, #0]
 8000bfc:	6059      	str	r1, [r3, #4]
 8000bfe:	6a41      	ldr	r1, [r0, #36]	; 0x24
 8000c00:	000b      	movs	r3, r1
 8000c02:	e002      	b.n	8000c0a <chRegFindThreadByWorkingArea+0x27a>
  } while ((cp != (thread_t *)tqp) && (cp->prio >= tp->prio));
 8000c04:	6898      	ldr	r0, [r3, #8]
 8000c06:	4282      	cmp	r2, r0
 8000c08:	d802      	bhi.n	8000c10 <chRegFindThreadByWorkingArea+0x280>
    cp = cp->queue.next;
 8000c0a:	681b      	ldr	r3, [r3, #0]
  } while ((cp != (thread_t *)tqp) && (cp->prio >= tp->prio));
 8000c0c:	4299      	cmp	r1, r3
 8000c0e:	d1f9      	bne.n	8000c04 <chRegFindThreadByWorkingArea+0x274>
 8000c10:	9802      	ldr	r0, [sp, #8]
  tp->queue.prev             = cp->queue.prev;
 8000c12:	685a      	ldr	r2, [r3, #4]
  tp->queue.next             = cp;
 8000c14:	6003      	str	r3, [r0, #0]
  tp->queue.prev             = cp->queue.prev;
 8000c16:	6042      	str	r2, [r0, #4]
  tp->queue.prev->queue.next = tp;
 8000c18:	6010      	str	r0, [r2, #0]
  cp->queue.prev             = tp;
 8000c1a:	6058      	str	r0, [r3, #4]
          tp = tp->u.wtmtxp->owner;
 8000c1c:	6888      	ldr	r0, [r1, #8]
 8000c1e:	e794      	b.n	8000b4a <chRegFindThreadByWorkingArea+0x1ba>
      chDbgAssert(ctp->mtxlist == mp, "not owned");
 8000c20:	6bbb      	ldr	r3, [r7, #56]	; 0x38
 8000c22:	9a00      	ldr	r2, [sp, #0]
 8000c24:	429a      	cmp	r2, r3
 8000c26:	d1c1      	bne.n	8000bac <chRegFindThreadByWorkingArea+0x21c>
  _dbg_check_unlock();
 8000c28:	f7ff fe2a 	bl	8000880 <_dbg_check_unlock>
  chDbgAssert((ch.rlist.queue.next == (thread_t *)&ch.rlist.queue) ||
 8000c2c:	6823      	ldr	r3, [r4, #0]
 8000c2e:	42a3      	cmp	r3, r4
 8000c30:	d005      	beq.n	8000c3e <chRegFindThreadByWorkingArea+0x2ae>
 8000c32:	69a2      	ldr	r2, [r4, #24]
 8000c34:	689b      	ldr	r3, [r3, #8]
 8000c36:	6892      	ldr	r2, [r2, #8]
 8000c38:	429a      	cmp	r2, r3
 8000c3a:	d200      	bcs.n	8000c3e <chRegFindThreadByWorkingArea+0x2ae>
 8000c3c:	e0a3      	b.n	8000d86 <chRegFindThreadByWorkingArea+0x3f6>
  qp = &heapp->header;
 8000c3e:	9901      	ldr	r1, [sp, #4]
 8000c40:	2300      	movs	r3, #0
 8000c42:	3108      	adds	r1, #8
 8000c44:	f383 8811 	msr	BASEPRI, r3
 8000c48:	000b      	movs	r3, r1
 8000c4a:	4640      	mov	r0, r8

  while (true) {
    chDbgAssert((hp < qp) || (hp >= H_LIMIT(qp)), "within free block");
 8000c4c:	4298      	cmp	r0, r3
 8000c4e:	d305      	bcc.n	8000c5c <chRegFindThreadByWorkingArea+0x2cc>
 8000c50:	685a      	ldr	r2, [r3, #4]
 8000c52:	3201      	adds	r2, #1
 8000c54:	00d2      	lsls	r2, r2, #3
 8000c56:	189a      	adds	r2, r3, r2
 8000c58:	4290      	cmp	r0, r2
 8000c5a:	d3ae      	bcc.n	8000bba <chRegFindThreadByWorkingArea+0x22a>

    if (((qp == &heapp->header) || (hp > qp)) &&
        ((H_NEXT(qp) == NULL) || (hp < H_NEXT(qp)))) {
 8000c5c:	681a      	ldr	r2, [r3, #0]
    if (((qp == &heapp->header) || (hp > qp)) &&
 8000c5e:	4299      	cmp	r1, r3
 8000c60:	d001      	beq.n	8000c66 <chRegFindThreadByWorkingArea+0x2d6>
 8000c62:	4298      	cmp	r0, r3
 8000c64:	d903      	bls.n	8000c6e <chRegFindThreadByWorkingArea+0x2de>
 8000c66:	2a00      	cmp	r2, #0
 8000c68:	d003      	beq.n	8000c72 <chRegFindThreadByWorkingArea+0x2e2>
        ((H_NEXT(qp) == NULL) || (hp < H_NEXT(qp)))) {
 8000c6a:	4290      	cmp	r0, r2
 8000c6c:	d301      	bcc.n	8000c72 <chRegFindThreadByWorkingArea+0x2e2>
        H_PAGES(qp) += H_PAGES(hp) + 1U;
        H_NEXT(qp) = H_NEXT(hp);
      }
      break;
    }
    qp = H_NEXT(qp);
 8000c6e:	0013      	movs	r3, r2
 8000c70:	e7ec      	b.n	8000c4c <chRegFindThreadByWorkingArea+0x2bc>
 8000c72:	4680      	mov	r8, r0
      H_NEXT(hp) = H_NEXT(qp);
 8000c74:	6002      	str	r2, [r0, #0]
      H_NEXT(qp) = hp;
 8000c76:	6018      	str	r0, [r3, #0]
      if (H_LIMIT(hp) == H_NEXT(hp)) {
 8000c78:	6842      	ldr	r2, [r0, #4]
 8000c7a:	6800      	ldr	r0, [r0, #0]
 8000c7c:	1c51      	adds	r1, r2, #1
 8000c7e:	00ca      	lsls	r2, r1, #3
 8000c80:	4442      	add	r2, r8
 8000c82:	4282      	cmp	r2, r0
 8000c84:	d100      	bne.n	8000c88 <chRegFindThreadByWorkingArea+0x2f8>
 8000c86:	e08e      	b.n	8000da6 <chRegFindThreadByWorkingArea+0x416>
      if ((H_LIMIT(qp) == hp)) {
 8000c88:	6858      	ldr	r0, [r3, #4]
 8000c8a:	1c41      	adds	r1, r0, #1
 8000c8c:	00c9      	lsls	r1, r1, #3
 8000c8e:	1859      	adds	r1, r3, r1
 8000c90:	4588      	cmp	r8, r1
 8000c92:	d100      	bne.n	8000c96 <chRegFindThreadByWorkingArea+0x306>
 8000c94:	e07e      	b.n	8000d94 <chRegFindThreadByWorkingArea+0x404>
 * @param[in] mp        pointer to the @p mutex_t structure
 *
 * @api
 */
void chMtxUnlock(mutex_t *mp) {
  thread_t *ctp = currp;
 8000c96:	69a3      	ldr	r3, [r4, #24]
 8000c98:	4698      	mov	r8, r3
 8000c9a:	2320      	movs	r3, #32
 8000c9c:	f383 8811 	msr	BASEPRI, r3
  _dbg_check_lock();
 8000ca0:	f7ff fe1e 	bl	80008e0 <_dbg_check_lock>

  chDbgCheck(mp != NULL);

  chSysLock();

  chDbgAssert(ctp->mtxlist != NULL, "owned mutexes list empty");
 8000ca4:	4643      	mov	r3, r8
 8000ca6:	6b9b      	ldr	r3, [r3, #56]	; 0x38
 8000ca8:	2b00      	cmp	r3, #0
 8000caa:	d002      	beq.n	8000cb2 <chRegFindThreadByWorkingArea+0x322>
  chDbgAssert(ctp->mtxlist->owner == ctp, "ownership failure");
 8000cac:	689a      	ldr	r2, [r3, #8]
 8000cae:	4590      	cmp	r8, r2
 8000cb0:	d01f      	beq.n	8000cf2 <chRegFindThreadByWorkingArea+0x362>
  chDbgAssert(ctp->mtxlist != NULL, "owned mutexes list empty");
 8000cb2:	480b      	ldr	r0, [pc, #44]	; (8000ce0 <chRegFindThreadByWorkingArea+0x350>)
 8000cb4:	f7ff fc84 	bl	80005c0 <chSysHalt>
 8000cb8:	2000059c 	.word	0x2000059c
 8000cbc:	00ff00ff 	.word	0x00ff00ff
 8000cc0:	08001fb8 	.word	0x08001fb8
 8000cc4:	08001f7c 	.word	0x08001f7c
 8000cc8:	08002028 	.word	0x08002028
 8000ccc:	08002044 	.word	0x08002044
 8000cd0:	08001fa0 	.word	0x08001fa0
 8000cd4:	08001fd0 	.word	0x08001fd0
 8000cd8:	08002010 	.word	0x08002010
 8000cdc:	08002004 	.word	0x08002004
 8000ce0:	0800201c 	.word	0x0800201c
    mp->owner = ctp;
 8000ce4:	9b01      	ldr	r3, [sp, #4]
    mp->next = ctp->mtxlist;
 8000ce6:	6bba      	ldr	r2, [r7, #56]	; 0x38
    mp->owner = ctp;
 8000ce8:	619f      	str	r7, [r3, #24]
    mp->next = ctp->mtxlist;
 8000cea:	61da      	str	r2, [r3, #28]
    ctp->mtxlist = mp;
 8000cec:	9b00      	ldr	r3, [sp, #0]
 8000cee:	63bb      	str	r3, [r7, #56]	; 0x38
 8000cf0:	e79a      	b.n	8000c28 <chRegFindThreadByWorkingArea+0x298>
  chDbgAssert(mp->cnt >= (cnt_t)1, "counter is not positive");

  if (--mp->cnt == (cnt_t)0) {
#endif

    chDbgAssert(ctp->mtxlist == mp, "not next in list");
 8000cf2:	9a00      	ldr	r2, [sp, #0]
 8000cf4:	429a      	cmp	r2, r3
 8000cf6:	d1dc      	bne.n	8000cb2 <chRegFindThreadByWorkingArea+0x322>

    /* Removes the top mutex from the thread's owned mutexes list and marks
       it as not owned. Note, it is assumed to be the same mutex passed as
       parameter of this function.*/
    ctp->mtxlist = mp->next;
 8000cf8:	4642      	mov	r2, r8
 8000cfa:	9f01      	ldr	r7, [sp, #4]
 8000cfc:	69fb      	ldr	r3, [r7, #28]
 8000cfe:	6393      	str	r3, [r2, #56]	; 0x38
 8000d00:	9302      	str	r3, [sp, #8]
 * @deprecated
 * @sclass
 */
static inline bool chMtxQueueNotEmptyS(mutex_t *mp) {

  chDbgCheckClassS();
 8000d02:	f7ff fc75 	bl	80005f0 <chDbgCheckClassS>
  return (bool)(tqp->next != (const thread_t *)tqp);
 8000d06:	693f      	ldr	r7, [r7, #16]

    /* If a thread is waiting on the mutex then the fun part begins.*/
    if (chMtxQueueNotEmptyS(mp)) {
 8000d08:	9b00      	ldr	r3, [sp, #0]
 8000d0a:	42bb      	cmp	r3, r7
 8000d0c:	d03e      	beq.n	8000d8c <chRegFindThreadByWorkingArea+0x3fc>
      thread_t *tp;

      /* Recalculates the optimal thread priority by scanning the owned
         mutexes list.*/
      tprio_t newprio = ctp->realprio;
 8000d0e:	4643      	mov	r3, r8
 8000d10:	6bdb      	ldr	r3, [r3, #60]	; 0x3c
 8000d12:	9303      	str	r3, [sp, #12]
 8000d14:	e00d      	b.n	8000d32 <chRegFindThreadByWorkingArea+0x3a2>
 8000d16:	f7ff fc6b 	bl	80005f0 <chDbgCheckClassS>
 8000d1a:	9a02      	ldr	r2, [sp, #8]
 8000d1c:	6813      	ldr	r3, [r2, #0]
      lmp = ctp->mtxlist;
      while (lmp != NULL) {
        /* If the highest priority thread waiting in the mutexes list has a
           greater priority than the current thread base priority then the
           final priority will have at least that priority.*/
        if (chMtxQueueNotEmptyS(lmp) &&
 8000d1e:	429a      	cmp	r2, r3
 8000d20:	d004      	beq.n	8000d2c <chRegFindThreadByWorkingArea+0x39c>
 8000d22:	689b      	ldr	r3, [r3, #8]
 8000d24:	9a03      	ldr	r2, [sp, #12]
 8000d26:	429a      	cmp	r2, r3
 8000d28:	d200      	bcs.n	8000d2c <chRegFindThreadByWorkingArea+0x39c>
 8000d2a:	9303      	str	r3, [sp, #12]
            (lmp->queue.next->prio > newprio)) {
          newprio = lmp->queue.next->prio;
        }
        lmp = lmp->next;
 8000d2c:	9b02      	ldr	r3, [sp, #8]
 8000d2e:	68db      	ldr	r3, [r3, #12]
 8000d30:	9302      	str	r3, [sp, #8]
      while (lmp != NULL) {
 8000d32:	9b02      	ldr	r3, [sp, #8]
 8000d34:	2b00      	cmp	r3, #0
 8000d36:	d1ee      	bne.n	8000d16 <chRegFindThreadByWorkingArea+0x386>
      }

      /* Assigns to the current thread the highest priority among all the
         waiting threads.*/
      ctp->prio = newprio;
 8000d38:	4643      	mov	r3, r8
 8000d3a:	9a03      	ldr	r2, [sp, #12]
  tqp->next->queue.prev = (thread_t *)tqp;
 8000d3c:	9900      	ldr	r1, [sp, #0]
 8000d3e:	609a      	str	r2, [r3, #8]
  tqp->next             = tp->queue.next;
 8000d40:	9a01      	ldr	r2, [sp, #4]
 8000d42:	683b      	ldr	r3, [r7, #0]

      /* Note, not using chSchWakeupS() becuase that function expects the
         current thread to have the higher or equal priority than the ones
         in the ready list. This is not necessarily true here because we
         just changed priority.*/
      (void) chSchReadyI(tp);
 8000d44:	0038      	movs	r0, r7
 8000d46:	6113      	str	r3, [r2, #16]
  tqp->next->queue.prev = (thread_t *)tqp;
 8000d48:	6059      	str	r1, [r3, #4]
      mp->next = tp->mtxlist;
 8000d4a:	6bbb      	ldr	r3, [r7, #56]	; 0x38
      mp->owner = tp;
 8000d4c:	6197      	str	r7, [r2, #24]
      mp->next = tp->mtxlist;
 8000d4e:	61d3      	str	r3, [r2, #28]
      tp->mtxlist = mp;
 8000d50:	63b9      	str	r1, [r7, #56]	; 0x38
      (void) chSchReadyI(tp);
 8000d52:	f7ff fcd5 	bl	8000700 <chSchReadyI>
  chDbgCheckClassS();
 8000d56:	f7ff fc4b 	bl	80005f0 <chDbgCheckClassS>
 *
 * @iclass
 */
static inline bool chSchIsRescRequiredI(void) {

  chDbgCheckClassI();
 8000d5a:	f7ff fc81 	bl	8000660 <chDbgCheckClassI>

  return firstprio(&ch.rlist.queue) > currp->prio;
 8000d5e:	6822      	ldr	r2, [r4, #0]
 8000d60:	69a3      	ldr	r3, [r4, #24]
  if (chSchIsRescRequiredI()) {
 8000d62:	6892      	ldr	r2, [r2, #8]
 8000d64:	689b      	ldr	r3, [r3, #8]
 8000d66:	429a      	cmp	r2, r3
 8000d68:	d901      	bls.n	8000d6e <chRegFindThreadByWorkingArea+0x3de>
    chSchDoRescheduleAhead();
 8000d6a:	f7ff fc89 	bl	8000680 <chSchDoReschedule>
  _dbg_check_unlock();
 8000d6e:	f7ff fd87 	bl	8000880 <_dbg_check_unlock>
  chDbgAssert((ch.rlist.queue.next == (thread_t *)&ch.rlist.queue) ||
 8000d72:	6823      	ldr	r3, [r4, #0]
 8000d74:	42a3      	cmp	r3, r4
 8000d76:	d100      	bne.n	8000d7a <chRegFindThreadByWorkingArea+0x3ea>
 8000d78:	e66a      	b.n	8000a50 <chRegFindThreadByWorkingArea+0xc0>
 8000d7a:	69a2      	ldr	r2, [r4, #24]
 8000d7c:	689b      	ldr	r3, [r3, #8]
 8000d7e:	6892      	ldr	r2, [r2, #8]
 8000d80:	429a      	cmp	r2, r3
 8000d82:	d300      	bcc.n	8000d86 <chRegFindThreadByWorkingArea+0x3f6>
 8000d84:	e664      	b.n	8000a50 <chRegFindThreadByWorkingArea+0xc0>
 8000d86:	480c      	ldr	r0, [pc, #48]	; (8000db8 <chRegFindThreadByWorkingArea+0x428>)
 8000d88:	f7ff fc1a 	bl	80005c0 <chSysHalt>
      chSchRescheduleS();
    }
    else {
      mp->owner = NULL;
 8000d8c:	2300      	movs	r3, #0
 8000d8e:	9a01      	ldr	r2, [sp, #4]
 8000d90:	6193      	str	r3, [r2, #24]
 8000d92:	e7ec      	b.n	8000d6e <chRegFindThreadByWorkingArea+0x3de>
        H_PAGES(qp) += H_PAGES(hp) + 1U;
 8000d94:	4642      	mov	r2, r8
 8000d96:	6852      	ldr	r2, [r2, #4]
 8000d98:	3201      	adds	r2, #1
 8000d9a:	1812      	adds	r2, r2, r0
 8000d9c:	605a      	str	r2, [r3, #4]
        H_NEXT(qp) = H_NEXT(hp);
 8000d9e:	4642      	mov	r2, r8
 8000da0:	6812      	ldr	r2, [r2, #0]
 8000da2:	601a      	str	r2, [r3, #0]
 8000da4:	e777      	b.n	8000c96 <chRegFindThreadByWorkingArea+0x306>
        H_PAGES(hp) += H_PAGES(H_NEXT(hp)) + 1U;
 8000da6:	6850      	ldr	r0, [r2, #4]
 8000da8:	4684      	mov	ip, r0
 8000daa:	4640      	mov	r0, r8
 8000dac:	4461      	add	r1, ip
 8000dae:	6041      	str	r1, [r0, #4]
        H_NEXT(hp) = H_NEXT(H_NEXT(hp));
 8000db0:	6812      	ldr	r2, [r2, #0]
 8000db2:	6002      	str	r2, [r0, #0]
 8000db4:	e768      	b.n	8000c88 <chRegFindThreadByWorkingArea+0x2f8>
 8000db6:	46c0      	nop			; (mov r8, r8)
 8000db8:	08001f88 	.word	0x08001f88
 8000dbc:	00000000 	.word	0x00000000

08000dc0 <chThdSleep>:
 *                      - @a TIME_IMMEDIATE this value is not allowed.
 *                      .
 *
 * @api
 */
void chThdSleep(systime_t time) {
 8000dc0:	b5f0      	push	{r4, r5, r6, r7, lr}
 8000dc2:	2320      	movs	r3, #32
 8000dc4:	b087      	sub	sp, #28
 8000dc6:	0005      	movs	r5, r0
 8000dc8:	f383 8811 	msr	BASEPRI, r3
  _dbg_check_lock();
 8000dcc:	f7ff fd88 	bl	80008e0 <_dbg_check_lock>
 *
 * @sclass
 */
static inline void chThdSleepS(systime_t time) {

  chDbgCheck(time != TIME_IMMEDIATE);
 8000dd0:	2d00      	cmp	r5, #0
 8000dd2:	d04e      	beq.n	8000e72 <chThdSleep+0xb2>
  chDbgCheckClassS();
 8000dd4:	f7ff fc0c 	bl	80005f0 <chDbgCheckClassS>
  if (TIME_INFINITE != time) {
 8000dd8:	1c6b      	adds	r3, r5, #1
 8000dda:	d04d      	beq.n	8000e78 <chThdSleep+0xb8>
void chVTDoSetI(virtual_timer_t *vtp, systime_t delay,
                vtfunc_t vtfunc, void *par) {
  virtual_timer_t *p;
  systime_t delta;

  chDbgCheckClassI();
 8000ddc:	f7ff fc40 	bl	8000660 <chDbgCheckClassI>
  chDbgCheck((vtp != NULL) && (vtfunc != NULL) && (delay != TIME_IMMEDIATE));

  vtp->par = par;
  vtp->func = vtfunc;
 8000de0:	4b51      	ldr	r3, [pc, #324]	; (8000f28 <chThdSleep+0x168>)
  vtp->par = par;
 8000de2:	af01      	add	r7, sp, #4
  vtp->func = vtfunc;
 8000de4:	60fb      	str	r3, [r7, #12]
 8000de6:	2380      	movs	r3, #128	; 0x80
    chVTDoSetI(&vt, time, wakeup, currp);
 8000de8:	4e50      	ldr	r6, [pc, #320]	; (8000f2c <chThdSleep+0x16c>)
 8000dea:	05db      	lsls	r3, r3, #23
 8000dec:	69b4      	ldr	r4, [r6, #24]
 8000dee:	6a5b      	ldr	r3, [r3, #36]	; 0x24
  vtp->par = par;
 8000df0:	613c      	str	r4, [r7, #16]
  {
    systime_t now = chVTGetSystemTimeX();

    /* If the requested delay is lower than the minimum safe delta then it
       is raised to the minimum safe value.*/
    if (delay < (systime_t)CH_CFG_ST_TIMEDELTA) {
 8000df2:	2d01      	cmp	r5, #1
 8000df4:	d05b      	beq.n	8000eae <chThdSleep+0xee>
      delay = (systime_t)CH_CFG_ST_TIMEDELTA;
    }

    /* Special case where the timers list is empty.*/
    if (&ch.vtlist == (virtual_timers_list_t *)ch.vtlist.next) {
 8000df6:	0032      	movs	r2, r6
 8000df8:	69f4      	ldr	r4, [r6, #28]
 8000dfa:	321c      	adds	r2, #28
 8000dfc:	4294      	cmp	r4, r2
 8000dfe:	d100      	bne.n	8000e02 <chThdSleep+0x42>
 8000e00:	e079      	b.n	8000ef6 <chThdSleep+0x136>
    /* Pointer to the first element in the delta list, which is non-empty.*/
    p = ch.vtlist.next;

    /* Delay as delta from 'lasttime'. Note, it can overflow and the value
       becomes lower than 'now'.*/
    delta = now - ch.vtlist.lasttime + delay;
 8000e02:	6ab0      	ldr	r0, [r6, #40]	; 0x28
 8000e04:	1a1b      	subs	r3, r3, r0
 8000e06:	18ed      	adds	r5, r5, r3

    if (delta < now - ch.vtlist.lasttime) {
 8000e08:	42ab      	cmp	r3, r5
 8000e0a:	d848      	bhi.n	8000e9e <chThdSleep+0xde>
         requires a special handling. We need to skip the first element and
         adjust the delta to wrap back in the previous numeric range.*/
      delta -= p->delta;
      p = p->next;
    }
    else if (delta < p->delta) {
 8000e0c:	68a3      	ldr	r3, [r4, #8]
 8000e0e:	429d      	cmp	r5, r3
 8000e10:	d203      	bcs.n	8000e1a <chThdSleep+0x5a>
 8000e12:	e04e      	b.n	8000eb2 <chThdSleep+0xf2>

  /* The delta list is scanned in order to find the correct position for
     this timer. */
  while (p->delta < delta) {
    delta -= p->delta;
    p = p->next;
 8000e14:	6824      	ldr	r4, [r4, #0]
    delta -= p->delta;
 8000e16:	1aed      	subs	r5, r5, r3
  while (p->delta < delta) {
 8000e18:	68a3      	ldr	r3, [r4, #8]
 8000e1a:	42ab      	cmp	r3, r5
 8000e1c:	d3fa      	bcc.n	8000e14 <chThdSleep+0x54>
  }

  /* The timer is inserted in the delta list.*/
  vtp->next = p;
  vtp->prev = vtp->next->prev;
 8000e1e:	6863      	ldr	r3, [r4, #4]
  vtp->next = p;
 8000e20:	9401      	str	r4, [sp, #4]
  vtp->prev = vtp->next->prev;
 8000e22:	607b      	str	r3, [r7, #4]
  vtp->prev->next = vtp;
 8000e24:	601f      	str	r7, [r3, #0]
  p->prev = vtp;
 8000e26:	6067      	str	r7, [r4, #4]
  vtp->delta = delta
 8000e28:	60bd      	str	r5, [r7, #8]

  /* Special case when the timer is in last position in the list, the
     value in the header must be restored.*/;
  p->delta -= delta;
 8000e2a:	68a3      	ldr	r3, [r4, #8]
 8000e2c:	1b5d      	subs	r5, r3, r5
  ch.vtlist.delta = (systime_t)-1;
 8000e2e:	2301      	movs	r3, #1
 8000e30:	425b      	negs	r3, r3
  p->delta -= delta;
 8000e32:	60a5      	str	r5, [r4, #8]
  ch.vtlist.delta = (systime_t)-1;
 8000e34:	6273      	str	r3, [r6, #36]	; 0x24
    chSchGoSleepS(newstate);
 8000e36:	2008      	movs	r0, #8
 8000e38:	f7ff fbea 	bl	8000610 <chSchGoSleepS>
 *
 * @iclass
 */
static inline bool chVTIsArmedI(virtual_timer_t *vtp) {

  chDbgCheckClassI();
 8000e3c:	f7ff fc10 	bl	8000660 <chDbgCheckClassI>
    if (chVTIsArmedI(&vt)) {
 8000e40:	9b04      	ldr	r3, [sp, #16]
 8000e42:	2b00      	cmp	r3, #0
 8000e44:	d01c      	beq.n	8000e80 <chThdSleep+0xc0>
 *
 * @iclass
 */
void chVTDoResetI(virtual_timer_t *vtp) {

  chDbgCheckClassI();
 8000e46:	f7ff fc0b 	bl	8000660 <chDbgCheckClassI>
#else /* CH_CFG_ST_TIMEDELTA > 0 */
  systime_t nowdelta, delta;

  /* If the timer is not the first of the list then it is simply unlinked
     else the operation is more complex.*/
  if (ch.vtlist.next != vtp) {
 8000e4a:	69f3      	ldr	r3, [r6, #28]
 8000e4c:	42bb      	cmp	r3, r7
 8000e4e:	d035      	beq.n	8000ebc <chThdSleep+0xfc>
    /* Removing the element from the delta list.*/
    vtp->prev->next = vtp->next;
 8000e50:	687a      	ldr	r2, [r7, #4]
 8000e52:	9b01      	ldr	r3, [sp, #4]
 8000e54:	6013      	str	r3, [r2, #0]
    vtp->next->prev = vtp->prev;
 8000e56:	9b01      	ldr	r3, [sp, #4]
 8000e58:	605a      	str	r2, [r3, #4]
    vtp->func = NULL;
 8000e5a:	2200      	movs	r2, #0
 8000e5c:	60fa      	str	r2, [r7, #12]

    /* Adding delta to the next element, if it is not the last one.*/
    if (&ch.vtlist != (virtual_timers_list_t *)vtp->next)
 8000e5e:	0032      	movs	r2, r6
 8000e60:	321c      	adds	r2, #28
 8000e62:	4293      	cmp	r3, r2
 8000e64:	d00c      	beq.n	8000e80 <chThdSleep+0xc0>
      vtp->next->delta += vtp->delta;
 8000e66:	6899      	ldr	r1, [r3, #8]
 8000e68:	68ba      	ldr	r2, [r7, #8]
 8000e6a:	468c      	mov	ip, r1
 8000e6c:	4462      	add	r2, ip
 8000e6e:	609a      	str	r2, [r3, #8]
 8000e70:	e006      	b.n	8000e80 <chThdSleep+0xc0>
 8000e72:	482f      	ldr	r0, [pc, #188]	; (8000f30 <chThdSleep+0x170>)
 8000e74:	f7ff fba4 	bl	80005c0 <chSysHalt>
    chSchGoSleepS(newstate);
 8000e78:	2008      	movs	r0, #8
 8000e7a:	f7ff fbc9 	bl	8000610 <chSchGoSleepS>
 8000e7e:	4e2b      	ldr	r6, [pc, #172]	; (8000f2c <chThdSleep+0x16c>)
  _dbg_check_unlock();
 8000e80:	f7ff fcfe 	bl	8000880 <_dbg_check_unlock>
  chDbgAssert((ch.rlist.queue.next == (thread_t *)&ch.rlist.queue) ||
 8000e84:	6833      	ldr	r3, [r6, #0]
 8000e86:	42b3      	cmp	r3, r6
 8000e88:	d004      	beq.n	8000e94 <chThdSleep+0xd4>
 8000e8a:	69b2      	ldr	r2, [r6, #24]
 8000e8c:	689b      	ldr	r3, [r3, #8]
 8000e8e:	6892      	ldr	r2, [r2, #8]
 8000e90:	429a      	cmp	r2, r3
 8000e92:	d309      	bcc.n	8000ea8 <chThdSleep+0xe8>
 8000e94:	2300      	movs	r3, #0
 8000e96:	f383 8811 	msr	BASEPRI, r3

  chSysLock();
  chThdSleepS(time);
  chSysUnlock();
}
 8000e9a:	b007      	add	sp, #28
 8000e9c:	bdf0      	pop	{r4, r5, r6, r7, pc}
      delta -= p->delta;
 8000e9e:	68a3      	ldr	r3, [r4, #8]
      p = p->next;
 8000ea0:	6824      	ldr	r4, [r4, #0]
      delta -= p->delta;
 8000ea2:	1aed      	subs	r5, r5, r3
 8000ea4:	68a3      	ldr	r3, [r4, #8]
 8000ea6:	e7b8      	b.n	8000e1a <chThdSleep+0x5a>
 8000ea8:	4822      	ldr	r0, [pc, #136]	; (8000f34 <chThdSleep+0x174>)
 8000eaa:	f7ff fb89 	bl	80005c0 <chSysHalt>
      delay = (systime_t)CH_CFG_ST_TIMEDELTA;
 8000eae:	3501      	adds	r5, #1
 8000eb0:	e7a1      	b.n	8000df6 <chThdSleep+0x36>
      port_timer_set_alarm(ch.vtlist.lasttime + delta);
 8000eb2:	1940      	adds	r0, r0, r5
 *
 * @notapi
 */
static inline void port_timer_set_alarm(systime_t time) {

  stSetAlarm(time);
 8000eb4:	f000 fa04 	bl	80012c0 <stSetAlarm>
 8000eb8:	68a3      	ldr	r3, [r4, #8]
 8000eba:	e7ae      	b.n	8000e1a <chThdSleep+0x5a>
    return;
  }

  /* Removing the first timer from the list.*/
  ch.vtlist.next = vtp->next;
  ch.vtlist.next->prev = (virtual_timer_t *)&ch.vtlist;
 8000ebc:	0033      	movs	r3, r6
  vtp->func = NULL;
 8000ebe:	2100      	movs	r1, #0
  ch.vtlist.next = vtp->next;
 8000ec0:	683a      	ldr	r2, [r7, #0]
  ch.vtlist.next->prev = (virtual_timer_t *)&ch.vtlist;
 8000ec2:	331c      	adds	r3, #28
  ch.vtlist.next = vtp->next;
 8000ec4:	61f2      	str	r2, [r6, #28]
  ch.vtlist.next->prev = (virtual_timer_t *)&ch.vtlist;
 8000ec6:	6053      	str	r3, [r2, #4]
  vtp->func = NULL;
 8000ec8:	60f9      	str	r1, [r7, #12]

  /* If the list become empty then the alarm timer is stopped and done.*/
  if (&ch.vtlist == (virtual_timers_list_t *)ch.vtlist.next) {
 8000eca:	429a      	cmp	r2, r3
 8000ecc:	d027      	beq.n	8000f1e <chThdSleep+0x15e>

    return;
  }

  /* The delta of the removed timer is added to the new first timer.*/
  ch.vtlist.next->delta += vtp->delta;
 8000ece:	6891      	ldr	r1, [r2, #8]
 8000ed0:	68bb      	ldr	r3, [r7, #8]
 8000ed2:	468c      	mov	ip, r1
 8000ed4:	4463      	add	r3, ip
 8000ed6:	6093      	str	r3, [r2, #8]
 8000ed8:	2280      	movs	r2, #128	; 0x80
 8000eda:	05d2      	lsls	r2, r2, #23
 8000edc:	6a51      	ldr	r1, [r2, #36]	; 0x24
/*  if (ch.vtlist.next->delta == 0) {
    return;
  }*/

  /* Distance in ticks between the last alarm event and current time.*/
  nowdelta = chVTGetSystemTimeX() - ch.vtlist.lasttime;
 8000ede:	6ab2      	ldr	r2, [r6, #40]	; 0x28
 8000ee0:	1a88      	subs	r0, r1, r2

  /* If the current time surpassed the time of the next element in list
     then the event interrupt is already pending, just return.*/
  if (nowdelta >= ch.vtlist.next->delta) {
 8000ee2:	4283      	cmp	r3, r0
 8000ee4:	d9cc      	bls.n	8000e80 <chThdSleep+0xc0>
    return;
  }

  /* Distance from the next scheduled event and now.*/
  delta = ch.vtlist.next->delta - nowdelta;
 8000ee6:	1a18      	subs	r0, r3, r0
     ticks from now.*/
  if (delta < (systime_t)CH_CFG_ST_TIMEDELTA) {
    delta = (systime_t)CH_CFG_ST_TIMEDELTA;
  }

  port_timer_set_alarm(ch.vtlist.lasttime + nowdelta + delta);
 8000ee8:	2802      	cmp	r0, #2
 8000eea:	d200      	bcs.n	8000eee <chThdSleep+0x12e>
 8000eec:	2002      	movs	r0, #2
 8000eee:	1840      	adds	r0, r0, r1
 8000ef0:	f000 f9e6 	bl	80012c0 <stSetAlarm>
 8000ef4:	e7c4      	b.n	8000e80 <chThdSleep+0xc0>
 *
 * @notapi
 */
static inline bool st_lld_is_alarm_active(void) {

  return (bool)((STM32_ST_TIM->DIER & STM32_TIM_DIER_CC1IE) != 0);
 8000ef6:	2180      	movs	r1, #128	; 0x80
 8000ef8:	2002      	movs	r0, #2
      ch.vtlist.lasttime = now;
 8000efa:	62b3      	str	r3, [r6, #40]	; 0x28
      vtp->delta = delay;
 8000efc:	60bd      	str	r5, [r7, #8]
 8000efe:	05c9      	lsls	r1, r1, #23
 8000f00:	68ca      	ldr	r2, [r1, #12]
      ch.vtlist.next = vtp;
 8000f02:	61f7      	str	r7, [r6, #28]
      ch.vtlist.prev = vtp;
 8000f04:	6237      	str	r7, [r6, #32]
      vtp->next = (virtual_timer_t *)&ch.vtlist;
 8000f06:	9401      	str	r4, [sp, #4]
      vtp->prev = (virtual_timer_t *)&ch.vtlist;
 8000f08:	607c      	str	r4, [r7, #4]
 8000f0a:	4002      	ands	r2, r0
 *
 * @api
 */
void stStartAlarm(systime_t abstime) {

  osalDbgAssert(stIsAlarmActive() == false, "already active");
 8000f0c:	d104      	bne.n	8000f18 <chThdSleep+0x158>
      port_timer_start_alarm(ch.vtlist.lasttime + delay);
 8000f0e:	195d      	adds	r5, r3, r5
  STM32_ST_TIM->CCR[0] = (uint32_t)time;
 8000f10:	634d      	str	r5, [r1, #52]	; 0x34
  STM32_ST_TIM->SR     = 0;
 8000f12:	610a      	str	r2, [r1, #16]
  STM32_ST_TIM->DIER   = STM32_TIM_DIER_CC1IE;
 8000f14:	60c8      	str	r0, [r1, #12]
 8000f16:	e78e      	b.n	8000e36 <chThdSleep+0x76>
 8000f18:	4807      	ldr	r0, [pc, #28]	; (8000f38 <chThdSleep+0x178>)
 8000f1a:	f7ff fb51 	bl	80005c0 <chSysHalt>
  STM32_ST_TIM->DIER = 0;
 8000f1e:	2380      	movs	r3, #128	; 0x80
 8000f20:	05db      	lsls	r3, r3, #23
 8000f22:	60d9      	str	r1, [r3, #12]
 8000f24:	e7ac      	b.n	8000e80 <chThdSleep+0xc0>
 8000f26:	46c0      	nop			; (mov r8, r8)
 8000f28:	08000811 	.word	0x08000811
 8000f2c:	2000059c 	.word	0x2000059c
 8000f30:	08001fac 	.word	0x08001fac
 8000f34:	08001f7c 	.word	0x08001f7c
 8000f38:	08002054 	.word	0x08002054
 8000f3c:	00000000 	.word	0x00000000

08000f40 <chThdExit>:
void chThdExit(msg_t msg) {
 8000f40:	b570      	push	{r4, r5, r6, lr}
 8000f42:	2320      	movs	r3, #32
 8000f44:	0005      	movs	r5, r0
 8000f46:	f383 8811 	msr	BASEPRI, r3
  _dbg_check_lock();
 8000f4a:	f7ff fcc9 	bl	80008e0 <_dbg_check_lock>
  thread_t *tp = currp;
 8000f4e:	4b11      	ldr	r3, [pc, #68]	; (8000f94 <chThdExit+0x54>)
 8000f50:	699c      	ldr	r4, [r3, #24]
  tp->u.exitcode = msg;
 8000f52:	6265      	str	r5, [r4, #36]	; 0x24
  while (list_notempty(&tp->waiting)) {
 8000f54:	0025      	movs	r5, r4
  return (bool)(tlp->next != (thread_t *)tlp);
 8000f56:	6aa0      	ldr	r0, [r4, #40]	; 0x28
 8000f58:	3528      	adds	r5, #40	; 0x28
 8000f5a:	4285      	cmp	r5, r0
 8000f5c:	d006      	beq.n	8000f6c <chThdExit+0x2c>
  tlp->next = tp->queue.next;
 8000f5e:	6803      	ldr	r3, [r0, #0]
 8000f60:	62a3      	str	r3, [r4, #40]	; 0x28
    (void) chSchReadyI(list_remove(&tp->waiting));
 8000f62:	f7ff fbcd 	bl	8000700 <chSchReadyI>
  return (bool)(tlp->next != (thread_t *)tlp);
 8000f66:	6aa0      	ldr	r0, [r4, #40]	; 0x28
  while (list_notempty(&tp->waiting)) {
 8000f68:	42a8      	cmp	r0, r5
 8000f6a:	d1f8      	bne.n	8000f5e <chThdExit+0x1e>
  if ((tp->refs == (trefs_t)0) &&
 8000f6c:	2322      	movs	r3, #34	; 0x22
 8000f6e:	5ce3      	ldrb	r3, [r4, r3]
 8000f70:	2b00      	cmp	r3, #0
 8000f72:	d108      	bne.n	8000f86 <chThdExit+0x46>
      ((tp->flags & CH_FLAG_MODE_MASK) == CH_FLAG_MODE_STATIC)) {
 8000f74:	2321      	movs	r3, #33	; 0x21
  if ((tp->refs == (trefs_t)0) &&
 8000f76:	5ce3      	ldrb	r3, [r4, r3]
 8000f78:	079b      	lsls	r3, r3, #30
 8000f7a:	d104      	bne.n	8000f86 <chThdExit+0x46>
    REG_REMOVE(tp);
 8000f7c:	6922      	ldr	r2, [r4, #16]
 8000f7e:	6963      	ldr	r3, [r4, #20]
 8000f80:	611a      	str	r2, [r3, #16]
 8000f82:	6922      	ldr	r2, [r4, #16]
 8000f84:	6153      	str	r3, [r2, #20]
  chSchGoSleepS(CH_STATE_FINAL);
 8000f86:	200f      	movs	r0, #15
 8000f88:	f7ff fb42 	bl	8000610 <chSchGoSleepS>
  chDbgAssert(false, "zombies apocalypse");
 8000f8c:	4802      	ldr	r0, [pc, #8]	; (8000f98 <chThdExit+0x58>)
 8000f8e:	f7ff fb17 	bl	80005c0 <chSysHalt>
 8000f92:	46c0      	nop			; (mov r8, r8)
 8000f94:	2000059c 	.word	0x2000059c
 8000f98:	08002038 	.word	0x08002038
 8000f9c:	00000000 	.word	0x00000000

08000fa0 <BusFault_Handler>:
 *
 * @notapi
 */
/*lint -save -e9075 [8.4] All symbols are invoked from asm context.*/
__attribute__((weak))
void _unhandled_exception(void) {
 8000fa0:	e7fe      	b.n	8000fa0 <BusFault_Handler>
 8000fa2:	46c0      	nop			; (mov r8, r8)
	...

08000fb0 <__init_ram_areas>:
}

/**
 * @brief   Performs the initialization of the various RAM areas.
 */
void __init_ram_areas(void) {
 8000fb0:	2203      	movs	r2, #3
 8000fb2:	b5f0      	push	{r4, r5, r6, r7, lr}
 8000fb4:	46c6      	mov	lr, r8
 8000fb6:	4690      	mov	r8, r2
      *p = 0;
      p++;
    }
    rap++;
  }
  while (rap < &ram_areas[CRT1_AREAS_NUMBER]);
 8000fb8:	327d      	adds	r2, #125	; 0x7d
 8000fba:	4694      	mov	ip, r2
      *p = 0;
 8000fbc:	2600      	movs	r6, #0
void __init_ram_areas(void) {
 8000fbe:	b500      	push	{lr}
  const ram_init_area_t *rap = ram_areas;
 8000fc0:	4f11      	ldr	r7, [pc, #68]	; (8001008 <__init_ram_areas+0x58>)
void __init_ram_areas(void) {
 8000fc2:	4d12      	ldr	r5, [pc, #72]	; (800100c <__init_ram_areas+0x5c>)
 8000fc4:	4c12      	ldr	r4, [pc, #72]	; (8001010 <__init_ram_areas+0x60>)
 8000fc6:	4b13      	ldr	r3, [pc, #76]	; (8001014 <__init_ram_areas+0x64>)
 8000fc8:	4913      	ldr	r1, [pc, #76]	; (8001018 <__init_ram_areas+0x68>)
  while (rap < &ram_areas[CRT1_AREAS_NUMBER]);
 8000fca:	44bc      	add	ip, r7
    while (p < rap->clear_area) {
 8000fcc:	429c      	cmp	r4, r3
 8000fce:	d90d      	bls.n	8000fec <__init_ram_areas+0x3c>
 8000fd0:	001a      	movs	r2, r3
      *p = *tp;
 8000fd2:	c901      	ldmia	r1!, {r0}
 8000fd4:	c201      	stmia	r2!, {r0}
    while (p < rap->clear_area) {
 8000fd6:	4294      	cmp	r4, r2
 8000fd8:	d8fb      	bhi.n	8000fd2 <__init_ram_areas+0x22>
 8000fda:	43da      	mvns	r2, r3
 8000fdc:	1914      	adds	r4, r2, r4
 8000fde:	4642      	mov	r2, r8
 8000fe0:	4394      	bics	r4, r2
 8000fe2:	3404      	adds	r4, #4
 8000fe4:	191b      	adds	r3, r3, r4
    while (p < rap->no_init_area) {
 8000fe6:	429d      	cmp	r5, r3
 8000fe8:	d902      	bls.n	8000ff0 <__init_ram_areas+0x40>
      *p = 0;
 8000fea:	c340      	stmia	r3!, {r6}
    while (p < rap->no_init_area) {
 8000fec:	429d      	cmp	r5, r3
 8000fee:	d8fc      	bhi.n	8000fea <__init_ram_areas+0x3a>
    rap++;
 8000ff0:	3710      	adds	r7, #16
  while (rap < &ram_areas[CRT1_AREAS_NUMBER]);
 8000ff2:	4567      	cmp	r7, ip
 8000ff4:	d004      	beq.n	8001000 <__init_ram_areas+0x50>
 8000ff6:	6839      	ldr	r1, [r7, #0]
 8000ff8:	687b      	ldr	r3, [r7, #4]
 8000ffa:	68bc      	ldr	r4, [r7, #8]
 8000ffc:	68fd      	ldr	r5, [r7, #12]
 8000ffe:	e7e5      	b.n	8000fcc <__init_ram_areas+0x1c>
#endif
}
 8001000:	bc04      	pop	{r2}
 8001002:	4690      	mov	r8, r2
 8001004:	bdf0      	pop	{r4, r5, r6, r7, pc}
 8001006:	46c0      	nop			; (mov r8, r8)
 8001008:	080020b4 	.word	0x080020b4
 800100c:	20000e24 	.word	0x20000e24
 8001010:	20000e24 	.word	0x20000e24
 8001014:	20000e24 	.word	0x20000e24
 8001018:	080022c4 	.word	0x080022c4
 800101c:	00000000 	.word	0x00000000

08001020 <__default_exit>:
void __default_exit(void) {
 8001020:	e7fe      	b.n	8001020 <__default_exit>
 8001022:	46c0      	nop			; (mov r8, r8)
	...

08001030 <__late_init>:
 8001030:	4770      	bx	lr
 8001032:	46c0      	nop			; (mov r8, r8)
	...

08001040 <__core_init>:
}
 8001040:	4770      	bx	lr
 8001042:	46c0      	nop			; (mov r8, r8)
	...

08001050 <pwmc1cb>:
}

static void pwmc1cb(PWMDriver *pwmp) { // channel 1 callback

  (void)pwmp;
  palSetPad(GPIOA, GPIOA_LED_GREEN);
 8001050:	2220      	movs	r2, #32
 8001052:	4b01      	ldr	r3, [pc, #4]	; (8001058 <pwmc1cb+0x8>)
 8001054:	831a      	strh	r2, [r3, #24]
}
 8001056:	4770      	bx	lr
 8001058:	40020000 	.word	0x40020000
 800105c:	00000000 	.word	0x00000000

08001060 <pwmc2cb>:
 8001060:	2220      	movs	r2, #32
 8001062:	4b01      	ldr	r3, [pc, #4]	; (8001068 <pwmc2cb+0x8>)
 8001064:	831a      	strh	r2, [r3, #24]
 8001066:	4770      	bx	lr
 8001068:	40020000 	.word	0x40020000
 800106c:	00000000 	.word	0x00000000

08001070 <pwmp1cb>:
  palClearPad(GPIOA, GPIOA_LED_GREEN);
 8001070:	2220      	movs	r2, #32
 8001072:	4b01      	ldr	r3, [pc, #4]	; (8001078 <pwmp1cb+0x8>)
 8001074:	835a      	strh	r2, [r3, #26]
}
 8001076:	4770      	bx	lr
 8001078:	40020000 	.word	0x40020000
 800107c:	00000000 	.word	0x00000000

08001080 <pwmp2cb>:
 8001080:	2220      	movs	r2, #32
 8001082:	4b01      	ldr	r3, [pc, #4]	; (8001088 <pwmp2cb+0x8>)
 8001084:	835a      	strh	r2, [r3, #26]
 8001086:	4770      	bx	lr
 8001088:	40020000 	.word	0x40020000
 800108c:	00000000 	.word	0x00000000

08001090 <VectorAC>:
 *          associated callback pointer is not equal to @p NULL in order to not
 *          perform an extra check in a potentially critical interrupt handler.
 *
 * @isr
 */
OSAL_IRQ_HANDLER(STM32_TIM1_CC_HANDLER) {
 8001090:	b510      	push	{r4, lr}

  OSAL_IRQ_PROLOGUE();
 8001092:	4c08      	ldr	r4, [pc, #32]	; (80010b4 <VectorAC+0x24>)
 8001094:	0020      	movs	r0, r4
 8001096:	f7ff fa73 	bl	8000580 <_trace_isr_enter>
 800109a:	f7ff fb71 	bl	8000780 <_dbg_check_enter_isr>

  pwm_lld_serve_interrupt(&PWMD1);
 800109e:	f000 fe77 	bl	8001d90 <pwm_lld_serve_interrupt.constprop.0>

  OSAL_IRQ_EPILOGUE();
 80010a2:	f7ff fb55 	bl	8000750 <_dbg_check_leave_isr>
 80010a6:	0020      	movs	r0, r4
 80010a8:	f7ff fa4a 	bl	8000540 <_trace_isr_leave>
 80010ac:	f7ff f9d0 	bl	8000450 <_port_irq_epilogue>
}
 80010b0:	bd10      	pop	{r4, pc}
 80010b2:	46c0      	nop			; (mov r8, r8)
 80010b4:	08002178 	.word	0x08002178
	...

080010c0 <VectorA4>:
OSAL_IRQ_HANDLER(STM32_TIM1_UP_HANDLER) {
 80010c0:	b510      	push	{r4, lr}
  OSAL_IRQ_PROLOGUE();
 80010c2:	4c08      	ldr	r4, [pc, #32]	; (80010e4 <VectorA4+0x24>)
 80010c4:	0020      	movs	r0, r4
 80010c6:	f7ff fa5b 	bl	8000580 <_trace_isr_enter>
 80010ca:	f7ff fb59 	bl	8000780 <_dbg_check_enter_isr>
  pwm_lld_serve_interrupt(&PWMD1);
 80010ce:	f000 fe5f 	bl	8001d90 <pwm_lld_serve_interrupt.constprop.0>
  OSAL_IRQ_EPILOGUE();
 80010d2:	f7ff fb3d 	bl	8000750 <_dbg_check_leave_isr>
 80010d6:	0020      	movs	r0, r4
 80010d8:	f7ff fa32 	bl	8000540 <_trace_isr_leave>
 80010dc:	f7ff f9b8 	bl	8000450 <_port_irq_epilogue>
}
 80010e0:	bd10      	pop	{r4, pc}
 80010e2:	46c0      	nop			; (mov r8, r8)
 80010e4:	0800216c 	.word	0x0800216c
	...

080010f0 <VectorB4>:
/**
 * @brief   TIM3 interrupt handler.
 *
 * @isr
 */
OSAL_IRQ_HANDLER(STM32_TIM3_HANDLER) {
 80010f0:	b570      	push	{r4, r5, r6, lr}

  OSAL_IRQ_PROLOGUE();
 80010f2:	4e2b      	ldr	r6, [pc, #172]	; (80011a0 <VectorB4+0xb0>)
 80010f4:	0030      	movs	r0, r6
 80010f6:	f7ff fa43 	bl	8000580 <_trace_isr_enter>
 80010fa:	f7ff fb41 	bl	8000780 <_dbg_check_enter_isr>
 * @notapi
 */
void icu_lld_serve_interrupt(ICUDriver *icup) {
  uint32_t sr;

  sr  = icup->tim->SR;
 80010fe:	4d29      	ldr	r5, [pc, #164]	; (80011a4 <VectorB4+0xb4>)
 8001100:	68ea      	ldr	r2, [r5, #12]
 8001102:	6913      	ldr	r3, [r2, #16]
  sr &= icup->tim->DIER & STM32_TIM_DIER_IRQ_MASK;
 8001104:	68d4      	ldr	r4, [r2, #12]
 8001106:	401c      	ands	r4, r3
 8001108:	23ff      	movs	r3, #255	; 0xff
 800110a:	4023      	ands	r3, r4
  icup->tim->SR = ~sr;
 800110c:	43db      	mvns	r3, r3
 800110e:	6113      	str	r3, [r2, #16]
  if (icup->config->channel == ICU_CHANNEL_1) {
 8001110:	686b      	ldr	r3, [r5, #4]
 8001112:	7d1a      	ldrb	r2, [r3, #20]
 8001114:	2a00      	cmp	r2, #0
 8001116:	d116      	bne.n	8001146 <VectorB4+0x56>
    if ((sr & STM32_TIM_SR_CC2IF) != 0)
 8001118:	0762      	lsls	r2, r4, #29
 800111a:	d534      	bpl.n	8001186 <VectorB4+0x96>
      _icu_isr_invoke_width_cb(icup);
 800111c:	782a      	ldrb	r2, [r5, #0]
 800111e:	2a04      	cmp	r2, #4
 8001120:	d02c      	beq.n	800117c <VectorB4+0x8c>
    if ((sr & STM32_TIM_SR_CC1IF) != 0)
 8001122:	07a3      	lsls	r3, r4, #30
 8001124:	d416      	bmi.n	8001154 <VectorB4+0x64>
    if ((sr & STM32_TIM_SR_CC1IF) != 0)
      _icu_isr_invoke_width_cb(icup);
    if ((sr & STM32_TIM_SR_CC2IF) != 0)
      _icu_isr_invoke_period_cb(icup);
  }
  if ((sr & STM32_TIM_SR_UIF) != 0)
 8001126:	07e3      	lsls	r3, r4, #31
 8001128:	d505      	bpl.n	8001136 <VectorB4+0x46>
    _icu_isr_invoke_overflow_cb(icup);
 800112a:	686b      	ldr	r3, [r5, #4]
 800112c:	0028      	movs	r0, r5
 800112e:	691b      	ldr	r3, [r3, #16]
 8001130:	4798      	blx	r3
 8001132:	2303      	movs	r3, #3
 8001134:	702b      	strb	r3, [r5, #0]
  OSAL_IRQ_EPILOGUE();
 8001136:	f7ff fb0b 	bl	8000750 <_dbg_check_leave_isr>
 800113a:	0030      	movs	r0, r6
 800113c:	f7ff fa00 	bl	8000540 <_trace_isr_leave>
 8001140:	f7ff f986 	bl	8000450 <_port_irq_epilogue>
}
 8001144:	bd70      	pop	{r4, r5, r6, pc}
    if ((sr & STM32_TIM_SR_CC1IF) != 0)
 8001146:	07a2      	lsls	r2, r4, #30
 8001148:	d50c      	bpl.n	8001164 <VectorB4+0x74>
      _icu_isr_invoke_width_cb(icup);
 800114a:	782a      	ldrb	r2, [r5, #0]
 800114c:	2a04      	cmp	r2, #4
 800114e:	d004      	beq.n	800115a <VectorB4+0x6a>
    if ((sr & STM32_TIM_SR_CC2IF) != 0)
 8001150:	0763      	lsls	r3, r4, #29
 8001152:	d5e8      	bpl.n	8001126 <VectorB4+0x36>
      _icu_isr_invoke_period_cb(icup);
 8001154:	2304      	movs	r3, #4
 8001156:	702b      	strb	r3, [r5, #0]
 8001158:	e7e5      	b.n	8001126 <VectorB4+0x36>
      _icu_isr_invoke_width_cb(icup);
 800115a:	6899      	ldr	r1, [r3, #8]
 800115c:	2900      	cmp	r1, #0
 800115e:	d01b      	beq.n	8001198 <VectorB4+0xa8>
 8001160:	0028      	movs	r0, r5
 8001162:	4788      	blx	r1
    if ((sr & STM32_TIM_SR_CC2IF) != 0)
 8001164:	0763      	lsls	r3, r4, #29
 8001166:	d5de      	bpl.n	8001126 <VectorB4+0x36>
      _icu_isr_invoke_period_cb(icup);
 8001168:	782b      	ldrb	r3, [r5, #0]
 800116a:	2b04      	cmp	r3, #4
 800116c:	d1f2      	bne.n	8001154 <VectorB4+0x64>
 800116e:	686b      	ldr	r3, [r5, #4]
 8001170:	68db      	ldr	r3, [r3, #12]
 8001172:	2b00      	cmp	r3, #0
 8001174:	d0ee      	beq.n	8001154 <VectorB4+0x64>
 8001176:	0028      	movs	r0, r5
 8001178:	4798      	blx	r3
 800117a:	e7eb      	b.n	8001154 <VectorB4+0x64>
      _icu_isr_invoke_width_cb(icup);
 800117c:	689a      	ldr	r2, [r3, #8]
 800117e:	2a00      	cmp	r2, #0
 8001180:	d007      	beq.n	8001192 <VectorB4+0xa2>
 8001182:	0028      	movs	r0, r5
 8001184:	4790      	blx	r2
    if ((sr & STM32_TIM_SR_CC1IF) != 0)
 8001186:	07a3      	lsls	r3, r4, #30
 8001188:	d5cd      	bpl.n	8001126 <VectorB4+0x36>
      _icu_isr_invoke_period_cb(icup);
 800118a:	782b      	ldrb	r3, [r5, #0]
 800118c:	2b04      	cmp	r3, #4
 800118e:	d1e1      	bne.n	8001154 <VectorB4+0x64>
 8001190:	e7ed      	b.n	800116e <VectorB4+0x7e>
    if ((sr & STM32_TIM_SR_CC1IF) != 0)
 8001192:	07a2      	lsls	r2, r4, #30
 8001194:	d4ec      	bmi.n	8001170 <VectorB4+0x80>
 8001196:	e7c6      	b.n	8001126 <VectorB4+0x36>
    if ((sr & STM32_TIM_SR_CC2IF) != 0)
 8001198:	4222      	tst	r2, r4
 800119a:	d1e9      	bne.n	8001170 <VectorB4+0x80>
 800119c:	e7c3      	b.n	8001126 <VectorB4+0x36>
 800119e:	46c0      	nop			; (mov r8, r8)
 80011a0:	0800219c 	.word	0x0800219c
 80011a4:	20000468 	.word	0x20000468
	...

080011b0 <__early_init>:
#if !STM32_NO_INIT
  /* PWR clock enable.*/
#if defined(HAL_USE_RTC) && defined(RCC_APB1ENR_RTCAPBEN)
  RCC->APB1ENR = RCC_APB1ENR_PWREN | RCC_APB1ENR_RTCAPBEN;
#else
  RCC->APB1ENR = RCC_APB1ENR_PWREN;
 80011b0:	2380      	movs	r3, #128	; 0x80
#endif

  /* PWR initialization.*/
#if defined(STM32F4XX) || defined(__DOXYGEN__)
  PWR->CR = STM32_VOS;
 80011b2:	21c0      	movs	r1, #192	; 0xc0
  RCC->APB1ENR = RCC_APB1ENR_PWREN;
 80011b4:	4a38      	ldr	r2, [pc, #224]	; (8001298 <__early_init+0xe8>)
 80011b6:	055b      	lsls	r3, r3, #21
 80011b8:	6413      	str	r3, [r2, #64]	; 0x40
  PWR->CR = STM32_VOS;
 80011ba:	4b38      	ldr	r3, [pc, #224]	; (800129c <__early_init+0xec>)
 80011bc:	0209      	lsls	r1, r1, #8
 80011be:	6019      	str	r1, [r3, #0]
  PWR->CR = 0;
#endif

  /* HSI setup, it enforces the reset situation in order to handle possible
     problems with JTAG probes and re-initializations.*/
  RCC->CR |= RCC_CR_HSION;                  /* Make sure HSI is ON.         */
 80011c0:	2101      	movs	r1, #1
 80011c2:	6813      	ldr	r3, [r2, #0]
 80011c4:	430b      	orrs	r3, r1
 80011c6:	6013      	str	r3, [r2, #0]
  while (!(RCC->CR & RCC_CR_HSIRDY))
 80011c8:	3101      	adds	r1, #1
 80011ca:	6813      	ldr	r3, [r2, #0]
 80011cc:	4219      	tst	r1, r3
 80011ce:	d0fc      	beq.n	80011ca <__early_init+0x1a>
    ;                                       /* Wait until HSI is stable.    */

  /* HSI is selected as new source without touching the other fields in
     CFGR. Clearing the register has to be postponed after HSI is the
     new source.*/
  RCC->CFGR &= ~RCC_CFGR_SW;                /* Reset SW */
 80011d0:	2103      	movs	r1, #3
 80011d2:	6893      	ldr	r3, [r2, #8]
 80011d4:	438b      	bics	r3, r1
 80011d6:	6093      	str	r3, [r2, #8]
  RCC->CFGR |= RCC_CFGR_SWS_HSI;            /* Select HSI as internal*/
 80011d8:	6893      	ldr	r3, [r2, #8]
  while ((RCC->CFGR & RCC_CFGR_SWS) != RCC_CFGR_SWS_HSI)
 80011da:	3109      	adds	r1, #9
  RCC->CFGR |= RCC_CFGR_SWS_HSI;            /* Select HSI as internal*/
 80011dc:	6093      	str	r3, [r2, #8]
  while ((RCC->CFGR & RCC_CFGR_SWS) != RCC_CFGR_SWS_HSI)
 80011de:	4a2e      	ldr	r2, [pc, #184]	; (8001298 <__early_init+0xe8>)
 80011e0:	6893      	ldr	r3, [r2, #8]
 80011e2:	400b      	ands	r3, r1
 80011e4:	d1fc      	bne.n	80011e0 <__early_init+0x30>
    ;                                       /* Wait until HSI is selected.  */

  /* Registers finally cleared to reset values.*/
  RCC->CR &= RCC_CR_HSITRIM | RCC_CR_HSION; /* CR Reset value.              */
 80011e6:	21f9      	movs	r1, #249	; 0xf9
 80011e8:	6810      	ldr	r0, [r2, #0]
 80011ea:	4001      	ands	r1, r0
 80011ec:	6011      	str	r1, [r2, #0]
  RCC->CFGR = 0;                            /* CFGR reset value.            */
 80011ee:	6093      	str	r3, [r2, #8]
  
#if STM32_HSE_ENABLED
  /* HSE activation.*/
#if defined(STM32_HSE_BYPASS)
  /* HSE Bypass.*/
  RCC->CR |= RCC_CR_HSEON | RCC_CR_HSEBYP;
 80011f0:	23a0      	movs	r3, #160	; 0xa0
 80011f2:	6811      	ldr	r1, [r2, #0]
 80011f4:	02db      	lsls	r3, r3, #11
 80011f6:	430b      	orrs	r3, r1
#else
  /* No HSE Bypass.*/
  RCC->CR |= RCC_CR_HSEON;
#endif
  while ((RCC->CR & RCC_CR_HSERDY) == 0)
 80011f8:	2180      	movs	r1, #128	; 0x80
  RCC->CR |= RCC_CR_HSEON | RCC_CR_HSEBYP;
 80011fa:	6013      	str	r3, [r2, #0]
  while ((RCC->CR & RCC_CR_HSERDY) == 0)
 80011fc:	4a26      	ldr	r2, [pc, #152]	; (8001298 <__early_init+0xe8>)
 80011fe:	0289      	lsls	r1, r1, #10
 8001200:	6813      	ldr	r3, [r2, #0]
 8001202:	420b      	tst	r3, r1
 8001204:	d0fc      	beq.n	8001200 <__early_init+0x50>
    ;                           /* Waits until HSE is stable.               */
#endif

#if STM32_LSI_ENABLED
  /* LSI activation.*/
  RCC->CSR |= RCC_CSR_LSION;
 8001206:	2101      	movs	r1, #1
 8001208:	6f53      	ldr	r3, [r2, #116]	; 0x74
 800120a:	430b      	orrs	r3, r1
 800120c:	6753      	str	r3, [r2, #116]	; 0x74
  while ((RCC->CSR & RCC_CSR_LSIRDY) == 0)
 800120e:	4a22      	ldr	r2, [pc, #136]	; (8001298 <__early_init+0xe8>)
 8001210:	3101      	adds	r1, #1
 8001212:	6f53      	ldr	r3, [r2, #116]	; 0x74
 8001214:	4219      	tst	r1, r3
 8001216:	d0fc      	beq.n	8001212 <__early_init+0x62>
    ;                           /* Waits until LSI is stable.               */
#endif

#if STM32_ACTIVATE_PLL
  /* PLL activation.*/
  RCC->PLLCFGR = STM32_PLLQ | STM32_PLLSRC | STM32_PLLP | STM32_PLLN |
 8001218:	4b21      	ldr	r3, [pc, #132]	; (80012a0 <__early_init+0xf0>)
 800121a:	6053      	str	r3, [r2, #4]
                 STM32_PLLM;
  RCC->CR |= RCC_CR_PLLON;
 800121c:	2380      	movs	r3, #128	; 0x80
 800121e:	6811      	ldr	r1, [r2, #0]
 8001220:	045b      	lsls	r3, r3, #17
 8001222:	430b      	orrs	r3, r1
 8001224:	6013      	str	r3, [r2, #0]

  /* Synchronization with voltage regulator stabilization.*/
#if defined(STM32F4XX)
  while ((PWR->CSR & PWR_CSR_VOSRDY) == 0)
 8001226:	2280      	movs	r2, #128	; 0x80
 8001228:	491c      	ldr	r1, [pc, #112]	; (800129c <__early_init+0xec>)
 800122a:	01d2      	lsls	r2, r2, #7
 800122c:	684b      	ldr	r3, [r1, #4]
 800122e:	4213      	tst	r3, r2
 8001230:	d0fc      	beq.n	800122c <__early_init+0x7c>
      ;
#endif /* STM32_OVERDRIVE_REQUIRED */
#endif /* defined(STM32F4XX) */

  /* Waiting for PLL lock.*/
  while (!(RCC->CR & RCC_CR_PLLRDY))
 8001232:	2180      	movs	r1, #128	; 0x80
 8001234:	4a18      	ldr	r2, [pc, #96]	; (8001298 <__early_init+0xe8>)
 8001236:	0489      	lsls	r1, r1, #18
 8001238:	6813      	ldr	r3, [r2, #0]
 800123a:	420b      	tst	r3, r1
 800123c:	d0fc      	beq.n	8001238 <__early_init+0x88>
  while (!(RCC->CR & RCC_CR_PLLSAIRDY))
    ;
#endif /* STM32_ACTIVATE_PLLSAI */

  /* Other clock-related settings (dividers, MCO etc).*/
  RCC->CFGR = STM32_MCO2PRE | STM32_MCO2SEL | STM32_MCO1PRE | STM32_MCO1SEL |
 800123e:	4b19      	ldr	r3, [pc, #100]	; (80012a4 <__early_init+0xf4>)
    dckcfgr |= STM32_SAI1SEL;
#endif
#if STM32_PLLSAIDIVR != STM32_PLLSAIDIVR_OFF
    dckcfgr |= STM32_PLLSAIDIVR;
#endif
    RCC->DCKCFGR = dckcfgr | STM32_PLLI2SDIVQ | STM32_PLLSAIDIVQ;
 8001240:	218c      	movs	r1, #140	; 0x8c
  RCC->CFGR = STM32_MCO2PRE | STM32_MCO2SEL | STM32_MCO1PRE | STM32_MCO1SEL |
 8001242:	6093      	str	r3, [r2, #8]
    RCC->DCKCFGR = dckcfgr | STM32_PLLI2SDIVQ | STM32_PLLSAIDIVQ;
 8001244:	2300      	movs	r3, #0
 8001246:	5053      	str	r3, [r2, r1]
  }
  RCC->DCKCFGR2 = STM32_CK48MSEL;
 8001248:	3108      	adds	r1, #8
 800124a:	5053      	str	r3, [r2, r1]

  /* Flash setup.*/
#if !defined(STM32_REMOVE_REVISION_A_FIX)
  /* Some old revisions of F4x MCUs randomly crashes with compiler
     optimizations enabled AND flash caches enabled. */
  if ((DBGMCU->IDCODE == 0x20006411) && (SCB->CPUID == 0x410FC241))
 800124c:	4b16      	ldr	r3, [pc, #88]	; (80012a8 <__early_init+0xf8>)
 800124e:	681a      	ldr	r2, [r3, #0]
 8001250:	4b16      	ldr	r3, [pc, #88]	; (80012ac <__early_init+0xfc>)
 8001252:	429a      	cmp	r2, r3
 8001254:	d015      	beq.n	8001282 <__early_init+0xd2>
    FLASH->ACR = FLASH_ACR_PRFTEN | STM32_FLASHBITS;
  else
    FLASH->ACR = FLASH_ACR_PRFTEN | FLASH_ACR_ICEN |
 8001256:	4a16      	ldr	r2, [pc, #88]	; (80012b0 <__early_init+0x100>)
 8001258:	4b16      	ldr	r3, [pc, #88]	; (80012b4 <__early_init+0x104>)
 800125a:	601a      	str	r2, [r3, #0]
               FLASH_ACR_DCEN | STM32_FLASHBITS;
#endif

  /* Switching to the configured clock source if it is different from HSI.*/
#if (STM32_SW != STM32_SW_HSI)
  RCC->CFGR |= STM32_SW;        /* Switches on the selected clock source.   */
 800125c:	2102      	movs	r1, #2
 800125e:	4a0e      	ldr	r2, [pc, #56]	; (8001298 <__early_init+0xe8>)
 8001260:	6893      	ldr	r3, [r2, #8]
 8001262:	430b      	orrs	r3, r1
 8001264:	6093      	str	r3, [r2, #8]
  while ((RCC->CFGR & RCC_CFGR_SWS) != (STM32_SW << 2))
 8001266:	310a      	adds	r1, #10
 8001268:	6893      	ldr	r3, [r2, #8]
 800126a:	400b      	ands	r3, r1
 800126c:	2b08      	cmp	r3, #8
 800126e:	d1fb      	bne.n	8001268 <__early_init+0xb8>
#endif
#endif /* STM32_NO_INIT */

  /* SYSCFG clock enabled here because it is a multi-functional unit shared
     among multiple drivers.*/
  rccEnableAPB2(RCC_APB2ENR_SYSCFGEN, TRUE);
 8001270:	2380      	movs	r3, #128	; 0x80
 8001272:	6c51      	ldr	r1, [r2, #68]	; 0x44
 8001274:	01db      	lsls	r3, r3, #7
 8001276:	4319      	orrs	r1, r3
 8001278:	6451      	str	r1, [r2, #68]	; 0x44
 800127a:	6e51      	ldr	r1, [r2, #100]	; 0x64
 800127c:	430b      	orrs	r3, r1
 800127e:	6653      	str	r3, [r2, #100]	; 0x64
 *          and before any other initialization.
 */
void __early_init(void) {

  stm32_clock_init();
}
 8001280:	4770      	bx	lr
  if ((DBGMCU->IDCODE == 0x20006411) && (SCB->CPUID == 0x410FC241))
 8001282:	4b0d      	ldr	r3, [pc, #52]	; (80012b8 <__early_init+0x108>)
 8001284:	681a      	ldr	r2, [r3, #0]
 8001286:	4b0d      	ldr	r3, [pc, #52]	; (80012bc <__early_init+0x10c>)
 8001288:	429a      	cmp	r2, r3
 800128a:	d1e4      	bne.n	8001256 <__early_init+0xa6>
    FLASH->ACR = FLASH_ACR_PRFTEN | STM32_FLASHBITS;
 800128c:	2206      	movs	r2, #6
 800128e:	4b09      	ldr	r3, [pc, #36]	; (80012b4 <__early_init+0x104>)
 8001290:	32ff      	adds	r2, #255	; 0xff
 8001292:	601a      	str	r2, [r3, #0]
 8001294:	e7e2      	b.n	800125c <__early_init+0xac>
 8001296:	46c0      	nop			; (mov r8, r8)
 8001298:	40023800 	.word	0x40023800
 800129c:	40007000 	.word	0x40007000
 80012a0:	07405408 	.word	0x07405408
 80012a4:	38889400 	.word	0x38889400
 80012a8:	e0042000 	.word	0xe0042000
 80012ac:	20006411 	.word	0x20006411
 80012b0:	00000705 	.word	0x00000705
 80012b4:	40023c00 	.word	0x40023c00
 80012b8:	e000ed00 	.word	0xe000ed00
 80012bc:	410fc241 	.word	0x410fc241

080012c0 <stSetAlarm>:
  return (bool)((STM32_ST_TIM->DIER & STM32_TIM_DIER_CC1IE) != 0);
 80012c0:	2380      	movs	r3, #128	; 0x80
 80012c2:	05db      	lsls	r3, r3, #23
 80012c4:	68da      	ldr	r2, [r3, #12]
 *
 * @param[in] abstime   the time to be set for the next alarm
 *
 * @api
 */
void stSetAlarm(systime_t abstime) {
 80012c6:	b510      	push	{r4, lr}

  osalDbgAssert(stIsAlarmActive() != false, "not active");
 80012c8:	0792      	lsls	r2, r2, #30
 80012ca:	d501      	bpl.n	80012d0 <stSetAlarm+0x10>
  STM32_ST_TIM->CCR[0] = (uint32_t)time;
 80012cc:	6358      	str	r0, [r3, #52]	; 0x34

  st_lld_set_alarm(abstime);
}
 80012ce:	bd10      	pop	{r4, pc}
  osalDbgAssert(stIsAlarmActive() != false, "not active");
 80012d0:	4801      	ldr	r0, [pc, #4]	; (80012d8 <stSetAlarm+0x18>)
 80012d2:	f7ff f975 	bl	80005c0 <chSysHalt>
 80012d6:	46c0      	nop			; (mov r8, r8)
 80012d8:	08002190 	.word	0x08002190
 80012dc:	00000000 	.word	0x00000000

080012e0 <VectorB0>:
 * @brief   TIM2 interrupt handler.
 * @details This interrupt is used for system tick in free running mode.
 *
 * @isr
 */
OSAL_IRQ_HANDLER(ST_HANDLER) {
 80012e0:	b5f0      	push	{r4, r5, r6, r7, lr}
 80012e2:	46d6      	mov	lr, sl
 80012e4:	464f      	mov	r7, r9
 80012e6:	4646      	mov	r6, r8

  OSAL_IRQ_PROLOGUE();
 80012e8:	4b37      	ldr	r3, [pc, #220]	; (80013c8 <VectorB0+0xe8>)
OSAL_IRQ_HANDLER(ST_HANDLER) {
 80012ea:	b5c0      	push	{r6, r7, lr}
  OSAL_IRQ_PROLOGUE();
 80012ec:	0018      	movs	r0, r3
 80012ee:	4699      	mov	r9, r3
 80012f0:	f7ff f946 	bl	8000580 <_trace_isr_enter>
 80012f4:	f7ff fa44 	bl	8000780 <_dbg_check_enter_isr>

  /* Note, under rare circumstances an interrupt can remain latched even if
     the timer SR register has been cleared, in those cases the interrupt
     is simply ignored.*/
  if ((STM32_ST_TIM->SR & TIM_SR_CC1IF) != 0U) {
 80012f8:	2380      	movs	r3, #128	; 0x80
 80012fa:	05db      	lsls	r3, r3, #23
 80012fc:	4698      	mov	r8, r3
 80012fe:	691b      	ldr	r3, [r3, #16]
 8001300:	079b      	lsls	r3, r3, #30
 8001302:	d40b      	bmi.n	800131c <VectorB0+0x3c>
    osalSysLockFromISR();
    osalOsTimerHandlerI();
    osalSysUnlockFromISR();
  }

  OSAL_IRQ_EPILOGUE();
 8001304:	f7ff fa24 	bl	8000750 <_dbg_check_leave_isr>
 8001308:	4648      	mov	r0, r9
 800130a:	f7ff f919 	bl	8000540 <_trace_isr_leave>
 800130e:	f7ff f89f 	bl	8000450 <_port_irq_epilogue>
}
 8001312:	bc1c      	pop	{r2, r3, r4}
 8001314:	4690      	mov	r8, r2
 8001316:	4699      	mov	r9, r3
 8001318:	46a2      	mov	sl, r4
 800131a:	bdf0      	pop	{r4, r5, r6, r7, pc}
    STM32_ST_TIM->SR = 0U;
 800131c:	2300      	movs	r3, #0
 800131e:	4642      	mov	r2, r8
 8001320:	6113      	str	r3, [r2, #16]
 8001322:	3320      	adds	r3, #32
 8001324:	f383 8811 	msr	BASEPRI, r3
  _dbg_check_lock_from_isr();
 8001328:	f7ff fa5a 	bl	80007e0 <_dbg_check_lock_from_isr>
 *
 * @iclass
 */
void chSysTimerHandlerI(void) {

  chDbgCheckClassI();
 800132c:	f7ff f998 	bl	8000660 <chDbgCheckClassI>
 *
 * @iclass
 */
static inline void chVTDoTickI(void) {

  chDbgCheckClassI();
 8001330:	f7ff f996 	bl	8000660 <chDbgCheckClassI>
  return (systime_t)STM32_ST_TIM->CNT;
 8001334:	4643      	mov	r3, r8
#else /* CH_CFG_ST_TIMEDELTA > 0 */
  virtual_timer_t *vtp;
  systime_t now, delta;

  /* First timer to be processed.*/
  vtp = ch.vtlist.next;
 8001336:	4d25      	ldr	r5, [pc, #148]	; (80013cc <VectorB0+0xec>)
 8001338:	6a59      	ldr	r1, [r3, #36]	; 0x24
 800133a:	69ec      	ldr	r4, [r5, #28]

  /* All timers within the time window are triggered and removed,
     note that the loop is stopped by the timers header having
     "ch.vtlist.vt_delta == (systime_t)-1" which is greater than
     all deltas.*/
  while (vtp->delta <= (systime_t)(now - ch.vtlist.lasttime)) {
 800133c:	6aab      	ldr	r3, [r5, #40]	; 0x28
 800133e:	68a2      	ldr	r2, [r4, #8]
 8001340:	1ac8      	subs	r0, r1, r3
 8001342:	4290      	cmp	r0, r2
 8001344:	d31f      	bcc.n	8001386 <VectorB0+0xa6>
    vtfunc_t fn;

    /* The "last time" becomes this timer's expiration time.*/
    ch.vtlist.lasttime += vtp->delta;

    vtp->next->prev = (virtual_timer_t *)&ch.vtlist;
 8001346:	002f      	movs	r7, r5
    ch.vtlist.next = vtp->next;
    fn = vtp->func;
    vtp->func = NULL;
 8001348:	2600      	movs	r6, #0
    vtp->next->prev = (virtual_timer_t *)&ch.vtlist;
 800134a:	371c      	adds	r7, #28
    ch.vtlist.lasttime += vtp->delta;
 800134c:	189b      	adds	r3, r3, r2
 800134e:	62ab      	str	r3, [r5, #40]	; 0x28
    fn = vtp->func;
 8001350:	68e2      	ldr	r2, [r4, #12]
    vtp->next->prev = (virtual_timer_t *)&ch.vtlist;
 8001352:	6823      	ldr	r3, [r4, #0]
    fn = vtp->func;
 8001354:	4692      	mov	sl, r2
    vtp->next->prev = (virtual_timer_t *)&ch.vtlist;
 8001356:	605f      	str	r7, [r3, #4]
    ch.vtlist.next = vtp->next;
 8001358:	61eb      	str	r3, [r5, #28]
    vtp->func = NULL;
 800135a:	60e6      	str	r6, [r4, #12]

    /* if the list becomes empty then the timer is stopped.*/
    if (ch.vtlist.next == (virtual_timer_t *)&ch.vtlist) {
 800135c:	42bb      	cmp	r3, r7
 800135e:	d02b      	beq.n	80013b8 <VectorB0+0xd8>
  _dbg_check_unlock_from_isr();
 8001360:	f7ff fa26 	bl	80007b0 <_dbg_check_unlock_from_isr>
 8001364:	f386 8811 	msr	BASEPRI, r6
       and in order to give a preemption chance to higher priority
       interrupts.*/
    chSysUnlockFromISR();

    /* The callback is invoked outside the kernel critical zone.*/
    fn(vtp->par);
 8001368:	6920      	ldr	r0, [r4, #16]
 800136a:	47d0      	blx	sl
 800136c:	2320      	movs	r3, #32
 800136e:	f383 8811 	msr	BASEPRI, r3
  _dbg_check_lock_from_isr();
 8001372:	f7ff fa35 	bl	80007e0 <_dbg_check_lock_from_isr>
 8001376:	4643      	mov	r3, r8
       of the list.*/
    chSysLockFromISR();

    /* Next element in the list, the current time could have advanced so
       recalculating the time window.*/
    vtp = ch.vtlist.next;
 8001378:	69ec      	ldr	r4, [r5, #28]
 800137a:	6a59      	ldr	r1, [r3, #36]	; 0x24
  while (vtp->delta <= (systime_t)(now - ch.vtlist.lasttime)) {
 800137c:	68a2      	ldr	r2, [r4, #8]
 800137e:	6aab      	ldr	r3, [r5, #40]	; 0x28
 8001380:	1ac8      	subs	r0, r1, r3
 8001382:	4282      	cmp	r2, r0
 8001384:	d9e2      	bls.n	800134c <VectorB0+0x6c>
    now = chVTGetSystemTimeX();
  }

  /* if the list is empty, nothing else to do.*/
  if (ch.vtlist.next == (virtual_timer_t *)&ch.vtlist) {
 8001386:	4812      	ldr	r0, [pc, #72]	; (80013d0 <VectorB0+0xf0>)
 8001388:	4284      	cmp	r4, r0
 800138a:	d00f      	beq.n	80013ac <VectorB0+0xcc>
    return;
  }

  /* Recalculating the next alarm time.*/
  delta = ch.vtlist.lasttime + vtp->delta - now;
 800138c:	18d3      	adds	r3, r2, r3
 800138e:	1a5c      	subs	r4, r3, r1
  if (delta < (systime_t)CH_CFG_ST_TIMEDELTA) {
    delta = (systime_t)CH_CFG_ST_TIMEDELTA;
  }
  port_timer_set_alarm(now + delta);
 8001390:	2c02      	cmp	r4, #2
 8001392:	d314      	bcc.n	80013be <VectorB0+0xde>
 8001394:	1864      	adds	r4, r4, r1
 8001396:	0020      	movs	r0, r4
 8001398:	f7ff ff92 	bl	80012c0 <stSetAlarm>
 800139c:	2380      	movs	r3, #128	; 0x80
 800139e:	05db      	lsls	r3, r3, #23
 80013a0:	6a5a      	ldr	r2, [r3, #36]	; 0x24

  chDbgAssert((chVTGetSystemTimeX() - ch.vtlist.lasttime) <=
 80013a2:	6aab      	ldr	r3, [r5, #40]	; 0x28
 80013a4:	1ad2      	subs	r2, r2, r3
 80013a6:	1ae3      	subs	r3, r4, r3
 80013a8:	429a      	cmp	r2, r3
 80013aa:	d80a      	bhi.n	80013c2 <VectorB0+0xe2>
  _dbg_check_unlock_from_isr();
 80013ac:	f7ff fa00 	bl	80007b0 <_dbg_check_unlock_from_isr>
 80013b0:	2300      	movs	r3, #0
 80013b2:	f383 8811 	msr	BASEPRI, r3
 80013b6:	e7a5      	b.n	8001304 <VectorB0+0x24>
  STM32_ST_TIM->DIER = 0;
 80013b8:	4643      	mov	r3, r8
 80013ba:	60de      	str	r6, [r3, #12]
 80013bc:	e7d0      	b.n	8001360 <VectorB0+0x80>
  port_timer_set_alarm(now + delta);
 80013be:	2402      	movs	r4, #2
 80013c0:	e7e8      	b.n	8001394 <VectorB0+0xb4>
  chDbgAssert((chVTGetSystemTimeX() - ch.vtlist.lasttime) <=
 80013c2:	4804      	ldr	r0, [pc, #16]	; (80013d4 <VectorB0+0xf4>)
 80013c4:	f7ff f8fc 	bl	80005c0 <chSysHalt>
 80013c8:	08002160 	.word	0x08002160
 80013cc:	2000059c 	.word	0x2000059c
 80013d0:	200005b8 	.word	0x200005b8
 80013d4:	08002134 	.word	0x08002134
	...

080013e0 <main>:
  rccResetAHB1(~0);
 80013e0:	4bd1      	ldr	r3, [pc, #836]	; (8001728 <main+0x348>)
 80013e2:	2101      	movs	r1, #1
  chRegSetThreadName("pwm");
	pwm1();
	pwm2();
}

int main(void) {
 80013e4:	b5f0      	push	{r4, r5, r6, r7, lr}
 80013e6:	691a      	ldr	r2, [r3, #16]
 80013e8:	46de      	mov	lr, fp
 80013ea:	2200      	movs	r2, #0
 80013ec:	4657      	mov	r7, sl
 80013ee:	464e      	mov	r6, r9
 80013f0:	4645      	mov	r5, r8
 80013f2:	4249      	negs	r1, r1
 80013f4:	b5e0      	push	{r5, r6, r7, lr}
 80013f6:	6119      	str	r1, [r3, #16]
 80013f8:	611a      	str	r2, [r3, #16]
  rccResetAHB2(~0);
 80013fa:	6958      	ldr	r0, [r3, #20]
 80013fc:	6159      	str	r1, [r3, #20]
 80013fe:	615a      	str	r2, [r3, #20]
  rccResetAPB1(~RCC_APB1RSTR_PWRRST);
 8001400:	6a1c      	ldr	r4, [r3, #32]
 8001402:	48ca      	ldr	r0, [pc, #808]	; (800172c <main+0x34c>)
 8001404:	b089      	sub	sp, #36	; 0x24
 8001406:	4320      	orrs	r0, r4
 8001408:	6218      	str	r0, [r3, #32]
 800140a:	621a      	str	r2, [r3, #32]
  rccResetAPB2(~0);
 800140c:	6a58      	ldr	r0, [r3, #36]	; 0x24
 800140e:	6259      	str	r1, [r3, #36]	; 0x24
  rccEnablePWRInterface(FALSE);
 8001410:	2180      	movs	r1, #128	; 0x80
  rccResetAPB2(~0);
 8001412:	625a      	str	r2, [r3, #36]	; 0x24
  rccEnablePWRInterface(FALSE);
 8001414:	6c18      	ldr	r0, [r3, #64]	; 0x40
 8001416:	0549      	lsls	r1, r1, #21
 8001418:	4301      	orrs	r1, r0
 800141a:	6419      	str	r1, [r3, #64]	; 0x40
  PWR->CR |= PWR_CR_DBP;
 800141c:	2180      	movs	r1, #128	; 0x80
 800141e:	48c4      	ldr	r0, [pc, #784]	; (8001730 <main+0x350>)
 8001420:	0049      	lsls	r1, r1, #1
 8001422:	6804      	ldr	r4, [r0, #0]
 8001424:	4321      	orrs	r1, r4
 8001426:	6001      	str	r1, [r0, #0]
  if ((RCC->BDCR & STM32_RTCSEL_MASK) != STM32_RTCSEL) {
 8001428:	20c0      	movs	r0, #192	; 0xc0
 800142a:	6f19      	ldr	r1, [r3, #112]	; 0x70
 800142c:	0080      	lsls	r0, r0, #2
 800142e:	4001      	ands	r1, r0
 8001430:	3801      	subs	r0, #1
 8001432:	38ff      	subs	r0, #255	; 0xff
 8001434:	4281      	cmp	r1, r0
 8001436:	d003      	beq.n	8001440 <main+0x60>
    RCC->BDCR = RCC_BDCR_BDRST;
 8001438:	2180      	movs	r1, #128	; 0x80
 800143a:	0249      	lsls	r1, r1, #9
 800143c:	6719      	str	r1, [r3, #112]	; 0x70
    RCC->BDCR = 0;
 800143e:	671a      	str	r2, [r3, #112]	; 0x70
  PWR->CSR &= ~PWR_CSR_BRE;
 8001440:	4abb      	ldr	r2, [pc, #748]	; (8001730 <main+0x350>)
 8001442:	49bc      	ldr	r1, [pc, #752]	; (8001734 <main+0x354>)
 8001444:	6853      	ldr	r3, [r2, #4]
#elif defined(STM32F0XX)
  rccEnableAHB(AHB_EN_MASK, TRUE);
#elif defined(STM32F3XX) || defined(STM32F37X)
  rccEnableAHB(AHB_EN_MASK, TRUE);
#elif defined(STM32F2XX) || defined(STM32F4XX) || defined(STM32F7XX)
  RCC->AHB1ENR   |= AHB1_EN_MASK;
 8001446:	4cb8      	ldr	r4, [pc, #736]	; (8001728 <main+0x348>)
 8001448:	400b      	ands	r3, r1
 800144a:	21ff      	movs	r1, #255	; 0xff
 800144c:	6053      	str	r3, [r2, #4]
 800144e:	6b22      	ldr	r2, [r4, #48]	; 0x30
  gpiop->AFRH    = config->afrh;
 8001450:	2699      	movs	r6, #153	; 0x99
  RCC->AHB1ENR   |= AHB1_EN_MASK;
 8001452:	430a      	orrs	r2, r1
 8001454:	6322      	str	r2, [r4, #48]	; 0x30
  RCC->AHB1LPENR |= AHB1_LPEN_MASK;
 8001456:	6d23      	ldr	r3, [r4, #80]	; 0x50
  gpiop->OTYPER  = config->otyper;
 8001458:	4ab7      	ldr	r2, [pc, #732]	; (8001738 <main+0x358>)
  RCC->AHB1LPENR |= AHB1_LPEN_MASK;
 800145a:	430b      	orrs	r3, r1
 800145c:	6523      	str	r3, [r4, #80]	; 0x50
  gpiop->OTYPER  = config->otyper;
 800145e:	2300      	movs	r3, #0
  gpiop->OSPEEDR = config->ospeedr;
 8001460:	3951      	subs	r1, #81	; 0x51
 8001462:	39ff      	subs	r1, #255	; 0xff
  gpiop->OTYPER  = config->otyper;
 8001464:	6053      	str	r3, [r2, #4]
  gpiop->OSPEEDR = config->ospeedr;
 8001466:	6091      	str	r1, [r2, #8]
  gpiop->PUPDR   = config->pupdr;
 8001468:	49b4      	ldr	r1, [pc, #720]	; (800173c <main+0x35c>)
  gpiop->ODR     = config->odr;
 800146a:	48b5      	ldr	r0, [pc, #724]	; (8001740 <main+0x360>)
  gpiop->PUPDR   = config->pupdr;
 800146c:	60d1      	str	r1, [r2, #12]
  gpiop->ODR     = config->odr;
 800146e:	49b5      	ldr	r1, [pc, #724]	; (8001744 <main+0x364>)
  gpiop->PUPDR   = config->pupdr;
 8001470:	4db5      	ldr	r5, [pc, #724]	; (8001748 <main+0x368>)
  gpiop->ODR     = config->odr;
 8001472:	6151      	str	r1, [r2, #20]
  gpiop->AFRL    = config->afrl;
 8001474:	49b5      	ldr	r1, [pc, #724]	; (800174c <main+0x36c>)
 8001476:	6211      	str	r1, [r2, #32]
  gpiop->AFRH    = config->afrh;
 8001478:	21aa      	movs	r1, #170	; 0xaa
 800147a:	0309      	lsls	r1, r1, #12
 800147c:	6251      	str	r1, [r2, #36]	; 0x24
  gpiop->MODER   = config->moder;
 800147e:	49b4      	ldr	r1, [pc, #720]	; (8001750 <main+0x370>)
 8001480:	6011      	str	r1, [r2, #0]
  gpiop->OSPEEDR = config->ospeedr;
 8001482:	2201      	movs	r2, #1
  gpiop->OTYPER  = config->otyper;
 8001484:	49b3      	ldr	r1, [pc, #716]	; (8001754 <main+0x374>)
  gpiop->OSPEEDR = config->ospeedr;
 8001486:	4252      	negs	r2, r2
  gpiop->OTYPER  = config->otyper;
 8001488:	604b      	str	r3, [r1, #4]
  gpiop->OSPEEDR = config->ospeedr;
 800148a:	608a      	str	r2, [r1, #8]
  gpiop->PUPDR   = config->pupdr;
 800148c:	60cd      	str	r5, [r1, #12]
  gpiop->ODR     = config->odr;
 800148e:	6148      	str	r0, [r1, #20]
  gpiop->AFRL    = config->afrl;
 8001490:	620b      	str	r3, [r1, #32]
  gpiop->AFRH    = config->afrh;
 8001492:	624e      	str	r6, [r1, #36]	; 0x24
  gpiop->MODER   = config->moder;
 8001494:	4eb0      	ldr	r6, [pc, #704]	; (8001758 <main+0x378>)
 8001496:	600e      	str	r6, [r1, #0]
  gpiop->OTYPER  = config->otyper;
 8001498:	49b0      	ldr	r1, [pc, #704]	; (800175c <main+0x37c>)
  gpiop->PUPDR   = config->pupdr;
 800149a:	4eb1      	ldr	r6, [pc, #708]	; (8001760 <main+0x380>)
  gpiop->OTYPER  = config->otyper;
 800149c:	604b      	str	r3, [r1, #4]
  gpiop->OSPEEDR = config->ospeedr;
 800149e:	608a      	str	r2, [r1, #8]
  gpiop->PUPDR   = config->pupdr;
 80014a0:	60ce      	str	r6, [r1, #12]
  gpiop->ODR     = config->odr;
 80014a2:	6148      	str	r0, [r1, #20]
  gpiop->AFRL    = config->afrl;
 80014a4:	620b      	str	r3, [r1, #32]
  gpiop->AFRH    = config->afrh;
 80014a6:	624b      	str	r3, [r1, #36]	; 0x24
  gpiop->MODER   = config->moder;
 80014a8:	600b      	str	r3, [r1, #0]
  gpiop->OTYPER  = config->otyper;
 80014aa:	49ae      	ldr	r1, [pc, #696]	; (8001764 <main+0x384>)
 80014ac:	604b      	str	r3, [r1, #4]
  gpiop->OSPEEDR = config->ospeedr;
 80014ae:	608a      	str	r2, [r1, #8]
  gpiop->PUPDR   = config->pupdr;
 80014b0:	60cd      	str	r5, [r1, #12]
  gpiop->ODR     = config->odr;
 80014b2:	6148      	str	r0, [r1, #20]
  gpiop->AFRL    = config->afrl;
 80014b4:	620b      	str	r3, [r1, #32]
  gpiop->AFRH    = config->afrh;
 80014b6:	624b      	str	r3, [r1, #36]	; 0x24
  gpiop->MODER   = config->moder;
 80014b8:	600b      	str	r3, [r1, #0]
  gpiop->OTYPER  = config->otyper;
 80014ba:	49ab      	ldr	r1, [pc, #684]	; (8001768 <main+0x388>)
 80014bc:	604b      	str	r3, [r1, #4]
  gpiop->OSPEEDR = config->ospeedr;
 80014be:	608a      	str	r2, [r1, #8]
  gpiop->PUPDR   = config->pupdr;
 80014c0:	60cd      	str	r5, [r1, #12]
  gpiop->ODR     = config->odr;
 80014c2:	6148      	str	r0, [r1, #20]
  gpiop->AFRL    = config->afrl;
 80014c4:	620b      	str	r3, [r1, #32]
  gpiop->AFRH    = config->afrh;
 80014c6:	624b      	str	r3, [r1, #36]	; 0x24
  gpiop->MODER   = config->moder;
 80014c8:	600b      	str	r3, [r1, #0]
  gpiop->OTYPER  = config->otyper;
 80014ca:	49a8      	ldr	r1, [pc, #672]	; (800176c <main+0x38c>)
 80014cc:	604b      	str	r3, [r1, #4]
  gpiop->OSPEEDR = config->ospeedr;
 80014ce:	608a      	str	r2, [r1, #8]
  gpiop->PUPDR   = config->pupdr;
 80014d0:	60cd      	str	r5, [r1, #12]
  gpiop->ODR     = config->odr;
 80014d2:	6148      	str	r0, [r1, #20]
  gpiop->AFRL    = config->afrl;
 80014d4:	620b      	str	r3, [r1, #32]
  gpiop->AFRH    = config->afrh;
 80014d6:	624b      	str	r3, [r1, #36]	; 0x24
  gpiop->MODER   = config->moder;
 80014d8:	600b      	str	r3, [r1, #0]
  gpiop->OTYPER  = config->otyper;
 80014da:	49a5      	ldr	r1, [pc, #660]	; (8001770 <main+0x390>)
 80014dc:	604b      	str	r3, [r1, #4]
  gpiop->OSPEEDR = config->ospeedr;
 80014de:	608a      	str	r2, [r1, #8]
  gpiop->PUPDR   = config->pupdr;
 80014e0:	60cd      	str	r5, [r1, #12]
  gpiop->ODR     = config->odr;
 80014e2:	6148      	str	r0, [r1, #20]
  gpiop->PUPDR   = config->pupdr;
 80014e4:	4da3      	ldr	r5, [pc, #652]	; (8001774 <main+0x394>)
  gpiop->AFRL    = config->afrl;
 80014e6:	620b      	str	r3, [r1, #32]
  gpiop->AFRH    = config->afrh;
 80014e8:	624b      	str	r3, [r1, #36]	; 0x24
  gpiop->MODER   = config->moder;
 80014ea:	600b      	str	r3, [r1, #0]
  gpiop->OTYPER  = config->otyper;
 80014ec:	49a2      	ldr	r1, [pc, #648]	; (8001778 <main+0x398>)
 80014ee:	604b      	str	r3, [r1, #4]
  gpiop->OSPEEDR = config->ospeedr;
 80014f0:	608a      	str	r2, [r1, #8]
  gpiop->PUPDR   = config->pupdr;
 80014f2:	60cd      	str	r5, [r1, #12]
  gpiop->ODR     = config->odr;
 80014f4:	6148      	str	r0, [r1, #20]
 *
 * @init
 */
void icuObjectInit(ICUDriver *icup) {

  icup->state  = ICU_STOP;
 80014f6:	2001      	movs	r0, #1
  gpiop->AFRL    = config->afrl;
 80014f8:	620b      	str	r3, [r1, #32]
  ICUD3.tim = STM32_TIM3;
 80014fa:	4da0      	ldr	r5, [pc, #640]	; (800177c <main+0x39c>)
  gpiop->AFRH    = config->afrh;
 80014fc:	624b      	str	r3, [r1, #36]	; 0x24
  gpiop->MODER   = config->moder;
 80014fe:	600b      	str	r3, [r1, #0]
 8001500:	499f      	ldr	r1, [pc, #636]	; (8001780 <main+0x3a0>)
 8001502:	7008      	strb	r0, [r1, #0]
  icup->config = NULL;
 8001504:	604b      	str	r3, [r1, #4]
 8001506:	60cd      	str	r5, [r1, #12]
void pwm_lld_init(void) {

#if STM32_PWM_USE_TIM1
  /* Driver initialization.*/
  pwmObjectInit(&PWMD1);
  PWMD1.channels = STM32_TIM1_CHANNELS;
 8001508:	2504      	movs	r5, #4
 *
 * @init
 */
void pwmObjectInit(PWMDriver *pwmp) {

  pwmp->state    = PWM_STOP;
 800150a:	499e      	ldr	r1, [pc, #632]	; (8001784 <main+0x3a4>)
 800150c:	740d      	strb	r5, [r1, #16]
  PWMD1.tim = STM32_TIM1;
 800150e:	4d9e      	ldr	r5, [pc, #632]	; (8001788 <main+0x3a8>)
 8001510:	7008      	strb	r0, [r1, #0]
  pwmp->config   = NULL;
  pwmp->enabled  = 0;
 8001512:	60cb      	str	r3, [r1, #12]
  pwmp->config   = NULL;
 8001514:	604b      	str	r3, [r1, #4]
 8001516:	618d      	str	r5, [r1, #24]

#if OSAL_ST_MODE == OSAL_ST_MODE_FREERUNNING
  /* Free running counter mode.*/

  /* Enabling timer clock.*/
  ST_ENABLE_CLOCK();
 8001518:	6c21      	ldr	r1, [r4, #64]	; 0x40
  NVIC->IP[_IP_IDX(n)] = (NVIC->IP[_IP_IDX(n)] & ~(0xFFU << _BIT_SHIFT(n))) |
                         (NVIC_PRIORITY_MASK(prio) << _BIT_SHIFT(n));
#else
  NVIC->IP[n] = NVIC_PRIORITY_MASK(prio);
#endif
  NVIC->ICPR[n >> 5U] = 1U << (n & 0x1FU);
 800151a:	25c0      	movs	r5, #192	; 0xc0
 800151c:	4301      	orrs	r1, r0
 800151e:	6421      	str	r1, [r4, #64]	; 0x40

  /* Enabling the stop mode during debug for this timer.*/
  ST_ENABLE_STOP();
 8001520:	4c9a      	ldr	r4, [pc, #616]	; (800178c <main+0x3ac>)
 8001522:	006d      	lsls	r5, r5, #1
 8001524:	68a1      	ldr	r1, [r4, #8]
 8001526:	4301      	orrs	r1, r0
 8001528:	60a1      	str	r1, [r4, #8]

  /* Initializing the counter in free running mode.*/
  STM32_ST_TIM->PSC    = (ST_CLOCK_SRC / OSAL_ST_FREQUENCY) - 1;
 800152a:	2180      	movs	r1, #128	; 0x80
 800152c:	4c98      	ldr	r4, [pc, #608]	; (8001790 <main+0x3b0>)
 800152e:	05c9      	lsls	r1, r1, #23
 8001530:	628c      	str	r4, [r1, #40]	; 0x28
  NVIC->IP[n] = NVIC_PRIORITY_MASK(prio);
 8001532:	24c7      	movs	r4, #199	; 0xc7
  STM32_ST_TIM->ARR    = ST_ARR_INIT;
 8001534:	62ca      	str	r2, [r1, #44]	; 0x2c
  STM32_ST_TIM->CCMR1  = 0;
 8001536:	618b      	str	r3, [r1, #24]
  STM32_ST_TIM->CCR[0] = 0;
 8001538:	634b      	str	r3, [r1, #52]	; 0x34
  STM32_ST_TIM->DIER   = 0;
 800153a:	60cb      	str	r3, [r1, #12]
  STM32_ST_TIM->CR2    = 0;
 800153c:	604b      	str	r3, [r1, #4]
  STM32_ST_TIM->EGR    = TIM_EGR_UG;
 800153e:	6148      	str	r0, [r1, #20]
  STM32_ST_TIM->CR1    = TIM_CR1_CEN;
 8001540:	6008      	str	r0, [r1, #0]
 8001542:	4994      	ldr	r1, [pc, #592]	; (8001794 <main+0x3b4>)
 8001544:	307f      	adds	r0, #127	; 0x7f
 8001546:	00a4      	lsls	r4, r4, #2
 8001548:	5508      	strb	r0, [r1, r4]
  NVIC->ICPR[n >> 5U] = 1U << (n & 0x1FU);
 800154a:	2480      	movs	r4, #128	; 0x80
 800154c:	0564      	lsls	r4, r4, #21
 800154e:	514c      	str	r4, [r1, r5]
  tqp->next = (thread_t *)tqp;
 8001550:	4d91      	ldr	r5, [pc, #580]	; (8001798 <main+0x3b8>)
  NVIC->ISER[n >> 5U] = 1U << (n & 0x1FU);
 8001552:	600c      	str	r4, [r1, #0]
  ch.vtlist.next = (virtual_timer_t *)&ch.vtlist;
 8001554:	0029      	movs	r1, r5
  ch.rlist.prio = NOPRIO;
 8001556:	60ab      	str	r3, [r5, #8]
  ch.vtlist.lasttime = (systime_t)0;
 8001558:	62ab      	str	r3, [r5, #40]	; 0x28
  ch.dbg.trace_buffer.suspended = (uint16_t)CH_DBG_TRACE_MASK;
 800155a:	330f      	adds	r3, #15
 800155c:	872b      	strh	r3, [r5, #56]	; 0x38
  ch.dbg.trace_buffer.ptr       = &ch.dbg.trace_buffer.buffer[0];
 800155e:	002b      	movs	r3, r5
  ch.vtlist.next = (virtual_timer_t *)&ch.vtlist;
 8001560:	311c      	adds	r1, #28
 8001562:	61e9      	str	r1, [r5, #28]
  ch.vtlist.prev = (virtual_timer_t *)&ch.vtlist;
 8001564:	6229      	str	r1, [r5, #32]
  for (i = 0U; i < (unsigned)CH_DBG_TRACE_BUFFER_SIZE; i++) {
 8001566:	2400      	movs	r4, #0
    ch.dbg.trace_buffer.buffer[i].type = CH_TRACE_TYPE_UNUSED;
 8001568:	2107      	movs	r1, #7
  ch.dbg.trace_buffer.ptr       = &ch.dbg.trace_buffer.buffer[0];
 800156a:	3340      	adds	r3, #64	; 0x40
 800156c:	602d      	str	r5, [r5, #0]
  tqp->prev = (thread_t *)tqp;
 800156e:	606d      	str	r5, [r5, #4]
  ch.rlist.newer = (thread_t *)&ch.rlist;
 8001570:	612d      	str	r5, [r5, #16]
  ch.rlist.older = (thread_t *)&ch.rlist;
 8001572:	616d      	str	r5, [r5, #20]
  ch.vtlist.delta = (systime_t)-1;
 8001574:	626a      	str	r2, [r5, #36]	; 0x24
  ch.dbg.trace_buffer.size      = CH_DBG_TRACE_BUFFER_SIZE;
 8001576:	8768      	strh	r0, [r5, #58]	; 0x3a
  ch.dbg.trace_buffer.ptr       = &ch.dbg.trace_buffer.buffer[0];
 8001578:	63eb      	str	r3, [r5, #60]	; 0x3c
    ch.dbg.trace_buffer.buffer[i].type = CH_TRACE_TYPE_UNUSED;
 800157a:	3401      	adds	r4, #1
 800157c:	0123      	lsls	r3, r4, #4
 800157e:	18eb      	adds	r3, r5, r3
 8001580:	3328      	adds	r3, #40	; 0x28
 8001582:	7a1a      	ldrb	r2, [r3, #8]
 8001584:	438a      	bics	r2, r1
 8001586:	721a      	strb	r2, [r3, #8]
  for (i = 0U; i < (unsigned)CH_DBG_TRACE_BUFFER_SIZE; i++) {
 8001588:	2c80      	cmp	r4, #128	; 0x80
 800158a:	d1f6      	bne.n	800157a <main+0x19a>
  tmp->best       = (rtcnt_t)-1;
 800158c:	2301      	movs	r3, #1
 800158e:	425b      	negs	r3, r3
  ch.dbg.isr_cnt  = (cnt_t)0;
 8001590:	2600      	movs	r6, #0
  tmp->cumulative = (rttime_t)0;
 8001592:	2200      	movs	r2, #0
  tmp->best       = (rtcnt_t)-1;
 8001594:	9302      	str	r3, [sp, #8]
  tmp->cumulative = (rttime_t)0;
 8001596:	2300      	movs	r3, #0
  ch.tm.offset = (rtcnt_t)0;
 8001598:	4f80      	ldr	r7, [pc, #512]	; (800179c <main+0x3bc>)
  chTMStartMeasurementX(&tm);
 800159a:	a802      	add	r0, sp, #8
  tmp->cumulative = (rttime_t)0;
 800159c:	9206      	str	r2, [sp, #24]
 800159e:	9307      	str	r3, [sp, #28]
 80015a0:	632e      	str	r6, [r5, #48]	; 0x30
  ch.dbg.lock_cnt = (cnt_t)0;
 80015a2:	636e      	str	r6, [r5, #52]	; 0x34
  ch.tm.offset = (rtcnt_t)0;
 80015a4:	51ee      	str	r6, [r5, r7]
  tmp->worst      = (rtcnt_t)0;
 80015a6:	9603      	str	r6, [sp, #12]
  tmp->last       = (rtcnt_t)0;
 80015a8:	9604      	str	r6, [sp, #16]
  tmp->n          = (ucnt_t)0;
 80015aa:	9605      	str	r6, [sp, #20]
  chTMStartMeasurementX(&tm);
 80015ac:	f000 faf8 	bl	8001ba0 <chTMStartMeasurementX.constprop.17>
  chTMStopMeasurementX(&tm);
 80015b0:	a802      	add	r0, sp, #8
 80015b2:	f7fe ff7d 	bl	80004b0 <chTMStopMeasurementX>
  ch.tm.offset = tm.last;
 80015b6:	9b04      	ldr	r3, [sp, #16]
  nextmem = __heap_base__;
 80015b8:	4a79      	ldr	r2, [pc, #484]	; (80017a0 <main+0x3c0>)
 80015ba:	51eb      	str	r3, [r5, r7]
 80015bc:	4b79      	ldr	r3, [pc, #484]	; (80017a4 <main+0x3c4>)
  tp->refs      = (trefs_t)1;
 80015be:	2101      	movs	r1, #1
 80015c0:	601a      	str	r2, [r3, #0]
  endmem  = __heap_end__;
 80015c2:	4a79      	ldr	r2, [pc, #484]	; (80017a8 <main+0x3c8>)
 80015c4:	4b79      	ldr	r3, [pc, #484]	; (80017ac <main+0x3cc>)
 80015c6:	601a      	str	r2, [r3, #0]
  default_heap.provider = chCoreAllocAligned;
 80015c8:	4b79      	ldr	r3, [pc, #484]	; (80017b0 <main+0x3d0>)
 80015ca:	4a7a      	ldr	r2, [pc, #488]	; (80017b4 <main+0x3d4>)
  mp->owner = NULL;
 80015cc:	619e      	str	r6, [r3, #24]
 80015ce:	601a      	str	r2, [r3, #0]
  tqp->next = (thread_t *)tqp;
 80015d0:	001a      	movs	r2, r3
 80015d2:	3210      	adds	r2, #16
 80015d4:	611a      	str	r2, [r3, #16]
  tqp->prev = (thread_t *)tqp;
 80015d6:	615a      	str	r2, [r3, #20]
  H_NEXT(&default_heap.header) = NULL;
 80015d8:	609e      	str	r6, [r3, #8]
  H_PAGES(&default_heap.header) = 0;
 80015da:	60de      	str	r6, [r3, #12]
  tp->prio      = prio;
 80015dc:	4b76      	ldr	r3, [pc, #472]	; (80017b8 <main+0x3d8>)
  tp->name      = name;
 80015de:	4a77      	ldr	r2, [pc, #476]	; (80017bc <main+0x3dc>)
  tp->prio      = prio;
 80015e0:	50ec      	str	r4, [r5, r3]
  tp->flags     = CH_FLAG_MODE_STATIC;
 80015e2:	4b77      	ldr	r3, [pc, #476]	; (80017c0 <main+0x3e0>)
 80015e4:	54ee      	strb	r6, [r5, r3]
  tp->realprio  = prio;
 80015e6:	4b77      	ldr	r3, [pc, #476]	; (80017c4 <main+0x3e4>)
 80015e8:	50ec      	str	r4, [r5, r3]
  tp->mtxlist   = NULL;
 80015ea:	4b77      	ldr	r3, [pc, #476]	; (80017c8 <main+0x3e8>)
 80015ec:	50ee      	str	r6, [r5, r3]
  tp->epending  = (eventmask_t)0;
 80015ee:	4b77      	ldr	r3, [pc, #476]	; (80017cc <main+0x3ec>)
 80015f0:	50ee      	str	r6, [r5, r3]
  tp->refs      = (trefs_t)1;
 80015f2:	4b77      	ldr	r3, [pc, #476]	; (80017d0 <main+0x3f0>)
 80015f4:	54e9      	strb	r1, [r5, r3]
  tp->name      = name;
 80015f6:	4b77      	ldr	r3, [pc, #476]	; (80017d4 <main+0x3f4>)
 80015f8:	50ea      	str	r2, [r5, r3]
  REG_INSERT(tp);
 80015fa:	3b08      	subs	r3, #8
 80015fc:	696a      	ldr	r2, [r5, #20]
 80015fe:	50ed      	str	r5, [r5, r3]
 8001600:	4b75      	ldr	r3, [pc, #468]	; (80017d8 <main+0x3f8>)
 8001602:	50ea      	str	r2, [r5, r3]
 8001604:	3b14      	subs	r3, #20
 8001606:	18eb      	adds	r3, r5, r3
 8001608:	6113      	str	r3, [r2, #16]
  tlp->next = (thread_t *)tlp;
 800160a:	4a74      	ldr	r2, [pc, #464]	; (80017dc <main+0x3fc>)
 800160c:	616b      	str	r3, [r5, #20]
 800160e:	18a8      	adds	r0, r5, r2
 8001610:	50a8      	str	r0, [r5, r2]
  tqp->next = (thread_t *)tqp;
 8001612:	4a73      	ldr	r2, [pc, #460]	; (80017e0 <main+0x400>)
 8001614:	4872      	ldr	r0, [pc, #456]	; (80017e0 <main+0x400>)
 8001616:	18aa      	adds	r2, r5, r2
 8001618:	502a      	str	r2, [r5, r0]
  tqp->prev = (thread_t *)tqp;
 800161a:	3004      	adds	r0, #4
 800161c:	502a      	str	r2, [r5, r0]
  currp = _thread_init(&ch.mainthread, (const char *)&ch_debug, NORMALPRIO);
 800161e:	61ab      	str	r3, [r5, #24]
    currp->wabase = &__main_thread_stack_base__;
 8001620:	4a70      	ldr	r2, [pc, #448]	; (80017e4 <main+0x404>)
 8001622:	4b71      	ldr	r3, [pc, #452]	; (80017e8 <main+0x408>)
{
  uint32_t reg_value;
  uint32_t PriorityGroupTmp = (PriorityGroup & (uint32_t)0x07UL);             /* only values 0..7 are used          */

  reg_value  =  SCB->AIRCR;                                                   /* read old register configuration    */
  reg_value &= ~((uint32_t)(SCB_AIRCR_VECTKEY_Msk | SCB_AIRCR_PRIGROUP_Msk)); /* clear bits to change               */
 8001624:	4871      	ldr	r0, [pc, #452]	; (80017ec <main+0x40c>)
 8001626:	50ea      	str	r2, [r5, r3]
  currp->state = CH_STATE_CURRENT;
 8001628:	3304      	adds	r3, #4
 800162a:	54e9      	strb	r1, [r5, r3]
  reg_value  =  SCB->AIRCR;                                                   /* read old register configuration    */
 800162c:	4b70      	ldr	r3, [pc, #448]	; (80017f0 <main+0x410>)
 800162e:	68da      	ldr	r2, [r3, #12]
  reg_value &= ~((uint32_t)(SCB_AIRCR_VECTKEY_Msk | SCB_AIRCR_PRIGROUP_Msk)); /* clear bits to change               */
 8001630:	4010      	ands	r0, r2
  reg_value  =  (reg_value                                   |
 8001632:	4a70      	ldr	r2, [pc, #448]	; (80017f4 <main+0x414>)
 8001634:	4302      	orrs	r2, r0
                ((uint32_t)0x5FAUL << SCB_AIRCR_VECTKEY_Pos) |
                (PriorityGroupTmp << 8U)                      );              /* Insert write key and priorty group */
  SCB->AIRCR =  reg_value;
 8001636:	60da      	str	r2, [r3, #12]
  CoreDebug->DEMCR |= CoreDebug_DEMCR_TRCENA_Msk;
 8001638:	2280      	movs	r2, #128	; 0x80
 800163a:	486f      	ldr	r0, [pc, #444]	; (80017f8 <main+0x418>)
 800163c:	0452      	lsls	r2, r2, #17
 800163e:	68c4      	ldr	r4, [r0, #12]
 8001640:	4322      	orrs	r2, r4
 8001642:	60c2      	str	r2, [r0, #12]
  DWT->CTRL |= DWT_CTRL_CYCCNTENA_Msk;
 8001644:	486d      	ldr	r0, [pc, #436]	; (80017fc <main+0x41c>)
 8001646:	6802      	ldr	r2, [r0, #0]
 8001648:	430a      	orrs	r2, r1
 800164a:	6002      	str	r2, [r0, #0]
 */
__STATIC_INLINE void NVIC_SetPriority(IRQn_Type IRQn, uint32_t priority)
{
  if ((int32_t)(IRQn) < 0)
  {
    SCB->SHP[(((uint32_t)(int32_t)IRQn) & 0xFUL)-4UL] = (uint8_t)((priority << (8U - __NVIC_PRIO_BITS)) & (uint32_t)0xFFUL);
 800164c:	2210      	movs	r2, #16
 800164e:	311f      	adds	r1, #31
 8001650:	77da      	strb	r2, [r3, #31]
 8001652:	3212      	adds	r2, #18
 8001654:	5499      	strb	r1, [r3, r2]
  if ((ch.dbg.isr_cnt != (cnt_t)0) || (ch.dbg.lock_cnt != (cnt_t)0)) {
 8001656:	6b2b      	ldr	r3, [r5, #48]	; 0x30
 8001658:	2b00      	cmp	r3, #0
 800165a:	d102      	bne.n	8001662 <main+0x282>
 800165c:	6b6b      	ldr	r3, [r5, #52]	; 0x34
 800165e:	2b00      	cmp	r3, #0
 8001660:	d002      	beq.n	8001668 <main+0x288>
    chSysHalt("SV#3");
 8001662:	4867      	ldr	r0, [pc, #412]	; (8001800 <main+0x420>)
 8001664:	f7fe ffac 	bl	80005c0 <chSysHalt>
 8001668:	2300      	movs	r3, #0
 800166a:	f383 8811 	msr	BASEPRI, r3
  __ASM volatile ("cpsie i" : : : "memory");
 800166e:	b662      	cpsie	i
  chDbgAssert(chRegFindThreadByWorkingArea(tdp->wbase) == NULL,
 8001670:	4c64      	ldr	r4, [pc, #400]	; (8001804 <main+0x424>)
 8001672:	0020      	movs	r0, r4
 8001674:	f7ff f98c 	bl	8000990 <chRegFindThreadByWorkingArea>
 8001678:	2800      	cmp	r0, #0
 800167a:	d002      	beq.n	8001682 <main+0x2a2>
 800167c:	4862      	ldr	r0, [pc, #392]	; (8001808 <main+0x428>)
 800167e:	f7fe ff9f 	bl	80005c0 <chSysHalt>
 8001682:	0021      	movs	r1, r4
 8001684:	0023      	movs	r3, r4
    *startp++ = v;
 8001686:	2255      	movs	r2, #85	; 0x55
 8001688:	31d8      	adds	r1, #216	; 0xd8
 800168a:	701a      	strb	r2, [r3, #0]
 800168c:	3301      	adds	r3, #1
  while (startp < endp) {
 800168e:	428b      	cmp	r3, r1
 8001690:	d1fb      	bne.n	800168a <main+0x2aa>
  __ASM volatile ("MSR basepri, %0" : : "r" (value) : "memory");
 8001692:	2320      	movs	r3, #32
 8001694:	f383 8811 	msr	BASEPRI, r3
  _dbg_check_lock();
 8001698:	f7ff f922 	bl	80008e0 <_dbg_check_lock>
  chDbgCheckClassI();
 800169c:	f7fe ffe0 	bl	8000660 <chDbgCheckClassI>
  tp->wabase = tdp->wbase;
 80016a0:	23ac      	movs	r3, #172	; 0xac
  PORT_SETUP_CONTEXT(tp, tdp->wbase, tp, tdp->funcp, tdp->arg);
 80016a2:	0022      	movs	r2, r4
  tp->wabase = tdp->wbase;
 80016a4:	50e4      	str	r4, [r4, r3]
  PORT_SETUP_CONTEXT(tp, tdp->wbase, tp, tdp->funcp, tdp->arg);
 80016a6:	326c      	adds	r2, #108	; 0x6c
 80016a8:	3b10      	subs	r3, #16
 80016aa:	50e2      	str	r2, [r4, r3]
 80016ac:	228c      	movs	r2, #140	; 0x8c
 80016ae:	4b57      	ldr	r3, [pc, #348]	; (800180c <main+0x42c>)
  tp->prio      = prio;
 80016b0:	2198      	movs	r1, #152	; 0x98
  tp->state     = CH_STATE_WTSTART;
 80016b2:	2002      	movs	r0, #2
  PORT_SETUP_CONTEXT(tp, tdp->wbase, tp, tdp->funcp, tdp->arg);
 80016b4:	66e3      	str	r3, [r4, #108]	; 0x6c
 80016b6:	2300      	movs	r3, #0
 80016b8:	4e55      	ldr	r6, [pc, #340]	; (8001810 <main+0x430>)
 80016ba:	6723      	str	r3, [r4, #112]	; 0x70
 80016bc:	50a6      	str	r6, [r4, r2]
  tp->prio      = prio;
 80016be:	3a8b      	subs	r2, #139	; 0x8b
 80016c0:	5062      	str	r2, [r4, r1]
  tp->state     = CH_STATE_WTSTART;
 80016c2:	3118      	adds	r1, #24
 80016c4:	5460      	strb	r0, [r4, r1]
  tp->flags     = CH_FLAG_MODE_STATIC;
 80016c6:	3101      	adds	r1, #1
 80016c8:	5463      	strb	r3, [r4, r1]
  tp->realprio  = prio;
 80016ca:	311b      	adds	r1, #27
 80016cc:	5062      	str	r2, [r4, r1]
  tp->mtxlist   = NULL;
 80016ce:	3904      	subs	r1, #4
 80016d0:	5063      	str	r3, [r4, r1]
  tp->epending  = (eventmask_t)0;
 80016d2:	3904      	subs	r1, #4
 80016d4:	5063      	str	r3, [r4, r1]
  tp->refs      = (trefs_t)1;
 80016d6:	33b2      	adds	r3, #178	; 0xb2
 80016d8:	54e2      	strb	r2, [r4, r3]
  tp->name      = name;
 80016da:	4a4e      	ldr	r2, [pc, #312]	; (8001814 <main+0x434>)
 80016dc:	3b0a      	subs	r3, #10
 80016de:	50e2      	str	r2, [r4, r3]
  REG_INSERT(tp);
 80016e0:	0020      	movs	r0, r4
 80016e2:	22a4      	movs	r2, #164	; 0xa4
 80016e4:	3b08      	subs	r3, #8
 80016e6:	50e5      	str	r5, [r4, r3]
 80016e8:	696b      	ldr	r3, [r5, #20]
 80016ea:	3090      	adds	r0, #144	; 0x90
 80016ec:	50a3      	str	r3, [r4, r2]
  tlp->next = (thread_t *)tlp;
 80016ee:	0022      	movs	r2, r4
 80016f0:	6118      	str	r0, [r3, #16]
 80016f2:	23b8      	movs	r3, #184	; 0xb8
 80016f4:	32b8      	adds	r2, #184	; 0xb8
 80016f6:	50e2      	str	r2, [r4, r3]
  tqp->next = (thread_t *)tqp;
 80016f8:	0023      	movs	r3, r4
 80016fa:	22bc      	movs	r2, #188	; 0xbc
 80016fc:	33bc      	adds	r3, #188	; 0xbc
 80016fe:	50a3      	str	r3, [r4, r2]
  tqp->prev = (thread_t *)tqp;
 8001700:	3204      	adds	r2, #4
 8001702:	50a3      	str	r3, [r4, r2]
 8001704:	6168      	str	r0, [r5, #20]
  chSchWakeupS(tp, MSG_OK);
 8001706:	f000 fa0b 	bl	8001b20 <chSchWakeupS.constprop.22>
  chSysUnlock();
 800170a:	f7ff f8d1 	bl	80008b0 <chSysUnlock.lto_priv.24>
  chDbgCheck((wsp != NULL) &&
 800170e:	4c42      	ldr	r4, [pc, #264]	; (8001818 <main+0x438>)
 8001710:	0763      	lsls	r3, r4, #29
 8001712:	d105      	bne.n	8001720 <main+0x340>
  chDbgAssert(chRegFindThreadByWorkingArea(wsp) == NULL,
 8001714:	0020      	movs	r0, r4
 8001716:	f7ff f93b 	bl	8000990 <chRegFindThreadByWorkingArea>
 800171a:	2800      	cmp	r0, #0
 800171c:	d100      	bne.n	8001720 <main+0x340>
 800171e:	e07f      	b.n	8001820 <main+0x440>
  chDbgCheck((wsp != NULL) &&
 8001720:	483e      	ldr	r0, [pc, #248]	; (800181c <main+0x43c>)
 8001722:	f7fe ff4d 	bl	80005c0 <chSysHalt>
 8001726:	46c0      	nop			; (mov r8, r8)
 8001728:	40023800 	.word	0x40023800
 800172c:	efffffff 	.word	0xefffffff
 8001730:	40007000 	.word	0x40007000
 8001734:	fffffdff 	.word	0xfffffdff
 8001738:	40020000 	.word	0x40020000
 800173c:	64155505 	.word	0x64155505
 8001740:	0000ffff 	.word	0x0000ffff
 8001744:	0000fbff 	.word	0x0000fbff
 8001748:	55555555 	.word	0x55555555
 800174c:	55507700 	.word	0x55507700
 8001750:	2a91a9a0 	.word	0x2a91a9a0
 8001754:	40020400 	.word	0x40020400
 8001758:	000a0080 	.word	0x000a0080
 800175c:	40020800 	.word	0x40020800
 8001760:	01555555 	.word	0x01555555
 8001764:	40020c00 	.word	0x40020c00
 8001768:	40021000 	.word	0x40021000
 800176c:	40021400 	.word	0x40021400
 8001770:	40021800 	.word	0x40021800
 8001774:	55555550 	.word	0x55555550
 8001778:	40021c00 	.word	0x40021c00
 800177c:	40000400 	.word	0x40000400
 8001780:	20000468 	.word	0x20000468
 8001784:	20000580 	.word	0x20000580
 8001788:	40010000 	.word	0x40010000
 800178c:	e0042000 	.word	0xe0042000
 8001790:	000020cf 	.word	0x000020cf
 8001794:	e000e100 	.word	0xe000e100
 8001798:	2000059c 	.word	0x2000059c
 800179c:	00000884 	.word	0x00000884
 80017a0:	20000e28 	.word	0x20000e28
 80017a4:	2000057c 	.word	0x2000057c
 80017a8:	20020000 	.word	0x20020000
 80017ac:	20000578 	.word	0x20000578
 80017b0:	20000558 	.word	0x20000558
 80017b4:	08000911 	.word	0x08000911
 80017b8:	00000848 	.word	0x00000848
 80017bc:	080021a8 	.word	0x080021a8
 80017c0:	00000861 	.word	0x00000861
 80017c4:	0000087c 	.word	0x0000087c
 80017c8:	00000878 	.word	0x00000878
 80017cc:	00000874 	.word	0x00000874
 80017d0:	00000862 	.word	0x00000862
 80017d4:	00000858 	.word	0x00000858
 80017d8:	00000854 	.word	0x00000854
 80017dc:	00000868 	.word	0x00000868
 80017e0:	0000086c 	.word	0x0000086c
 80017e4:	20000200 	.word	0x20000200
 80017e8:	0000085c 	.word	0x0000085c
 80017ec:	0000f8ff 	.word	0x0000f8ff
 80017f0:	e000ed00 	.word	0xe000ed00
 80017f4:	05fa0300 	.word	0x05fa0300
 80017f8:	e000edf0 	.word	0xe000edf0
 80017fc:	e0001000 	.word	0xe0001000
 8001800:	080021c0 	.word	0x080021c0
 8001804:	20000480 	.word	0x20000480
 8001808:	08002140 	.word	0x08002140
 800180c:	08000441 	.word	0x08000441
 8001810:	080002a5 	.word	0x080002a5
 8001814:	080021c8 	.word	0x080021c8
 8001818:	08001a01 	.word	0x08001a01
 800181c:	0800214c 	.word	0x0800214c
  while (startp < endp) {
 8001820:	23a4      	movs	r3, #164	; 0xa4
    *startp++ = v;
 8001822:	2255      	movs	r2, #85	; 0x55
  while (startp < endp) {
 8001824:	005b      	lsls	r3, r3, #1
    *startp++ = v;
 8001826:	5422      	strb	r2, [r4, r0]
 8001828:	3001      	adds	r0, #1
  while (startp < endp) {
 800182a:	4298      	cmp	r0, r3
 800182c:	d1fb      	bne.n	8001826 <main+0x446>
 800182e:	2320      	movs	r3, #32
 8001830:	f383 8811 	msr	BASEPRI, r3
 8001834:	f7ff f854 	bl	80008e0 <_dbg_check_lock>
  tp->wabase = (stkalign_t *)wsp;
 8001838:	22ff      	movs	r2, #255	; 0xff
 800183a:	0023      	movs	r3, r4
 800183c:	4013      	ands	r3, r2
 800183e:	4699      	mov	r9, r3
 8001840:	218e      	movs	r1, #142	; 0x8e
 8001842:	4648      	mov	r0, r9
 8001844:	0049      	lsls	r1, r1, #1
 8001846:	5460      	strb	r0, [r4, r1]
 8001848:	0021      	movs	r1, r4
 800184a:	0a27      	lsrs	r7, r4, #8
 800184c:	0c20      	lsrs	r0, r4, #16
 800184e:	311d      	adds	r1, #29
 8001850:	4017      	ands	r7, r2
 8001852:	31ff      	adds	r1, #255	; 0xff
 8001854:	4010      	ands	r0, r2
 8001856:	704f      	strb	r7, [r1, #1]
 8001858:	9001      	str	r0, [sp, #4]
 800185a:	7088      	strb	r0, [r1, #2]
 800185c:	0e20      	lsrs	r0, r4, #24
 800185e:	70c8      	strb	r0, [r1, #3]
  PORT_SETUP_CONTEXT(tp, wsp, tp, pf, arg);
 8001860:	495f      	ldr	r1, [pc, #380]	; (80019e0 <main+0x600>)
  tp->wabase = (stkalign_t *)wsp;
 8001862:	4680      	mov	r8, r0
  PORT_SETUP_CONTEXT(tp, wsp, tp, pf, arg);
 8001864:	0008      	movs	r0, r1
 8001866:	4010      	ands	r0, r2
 8001868:	4682      	mov	sl, r0
 800186a:	2086      	movs	r0, #134	; 0x86
  tp->wabase = (stkalign_t *)wsp;
 800186c:	46bb      	mov	fp, r7
  PORT_SETUP_CONTEXT(tp, wsp, tp, pf, arg);
 800186e:	4657      	mov	r7, sl
 8001870:	0040      	lsls	r0, r0, #1
 8001872:	5427      	strb	r7, [r4, r0]
 8001874:	4684      	mov	ip, r0
 8001876:	0a08      	lsrs	r0, r1, #8
 8001878:	4682      	mov	sl, r0
 800187a:	44a4      	add	ip, r4
 800187c:	4660      	mov	r0, ip
 800187e:	4657      	mov	r7, sl
 8001880:	7047      	strb	r7, [r0, #1]
 8001882:	0c08      	lsrs	r0, r1, #16
 8001884:	4682      	mov	sl, r0
 8001886:	4660      	mov	r0, ip
 8001888:	4657      	mov	r7, sl
 800188a:	7087      	strb	r7, [r0, #2]
 800188c:	0e08      	lsrs	r0, r1, #24
 800188e:	4682      	mov	sl, r0
 8001890:	4660      	mov	r0, ip
 8001892:	4657      	mov	r7, sl
 8001894:	70c7      	strb	r7, [r0, #3]
 8001896:	20dc      	movs	r0, #220	; 0xdc
 8001898:	464f      	mov	r7, r9
 800189a:	5427      	strb	r7, [r4, r0]
 800189c:	4668      	mov	r0, sp
 800189e:	7900      	ldrb	r0, [r0, #4]
 80018a0:	465f      	mov	r7, fp
 80018a2:	7088      	strb	r0, [r1, #2]
 80018a4:	4640      	mov	r0, r8
  tp->wabase = (stkalign_t *)wsp;
 80018a6:	2300      	movs	r3, #0
  PORT_SETUP_CONTEXT(tp, wsp, tp, pf, arg);
 80018a8:	704f      	strb	r7, [r1, #1]
 80018aa:	70c8      	strb	r0, [r1, #3]
 80018ac:	21e0      	movs	r1, #224	; 0xe0
 80018ae:	5463      	strb	r3, [r4, r1]
 80018b0:	0021      	movs	r1, r4
 80018b2:	0030      	movs	r0, r6
 80018b4:	31e0      	adds	r1, #224	; 0xe0
 80018b6:	704b      	strb	r3, [r1, #1]
 80018b8:	708b      	strb	r3, [r1, #2]
 80018ba:	70cb      	strb	r3, [r1, #3]
 80018bc:	21fc      	movs	r1, #252	; 0xfc
 80018be:	4010      	ands	r0, r2
 80018c0:	5460      	strb	r0, [r4, r1]
 80018c2:	0021      	movs	r1, r4
 80018c4:	0a30      	lsrs	r0, r6, #8
 80018c6:	31fc      	adds	r1, #252	; 0xfc
 80018c8:	7048      	strb	r0, [r1, #1]
 80018ca:	0c30      	lsrs	r0, r6, #16
 80018cc:	0e36      	lsrs	r6, r6, #24
 80018ce:	7088      	strb	r0, [r1, #2]
 80018d0:	70ce      	strb	r6, [r1, #3]
  tp->prio      = prio;
 80018d2:	2080      	movs	r0, #128	; 0x80
 80018d4:	2184      	movs	r1, #132	; 0x84
 80018d6:	4240      	negs	r0, r0
 80018d8:	0049      	lsls	r1, r1, #1
 80018da:	5460      	strb	r0, [r4, r1]
 80018dc:	0021      	movs	r1, r4
 80018de:	3109      	adds	r1, #9
 80018e0:	31ff      	adds	r1, #255	; 0xff
 80018e2:	704b      	strb	r3, [r1, #1]
 80018e4:	708b      	strb	r3, [r1, #2]
 80018e6:	70cb      	strb	r3, [r1, #3]
  tp->state     = CH_STATE_WTSTART;
 80018e8:	2190      	movs	r1, #144	; 0x90
 80018ea:	2602      	movs	r6, #2
 80018ec:	0049      	lsls	r1, r1, #1
 80018ee:	5466      	strb	r6, [r4, r1]
  tp->flags     = CH_FLAG_MODE_STATIC;
 80018f0:	2122      	movs	r1, #34	; 0x22
 80018f2:	31ff      	adds	r1, #255	; 0xff
 80018f4:	5463      	strb	r3, [r4, r1]
  tp->realprio  = prio;
 80018f6:	311b      	adds	r1, #27
 80018f8:	5460      	strb	r0, [r4, r1]
 80018fa:	0021      	movs	r1, r4
 80018fc:	313d      	adds	r1, #61	; 0x3d
 80018fe:	31ff      	adds	r1, #255	; 0xff
 8001900:	704b      	strb	r3, [r1, #1]
 8001902:	708b      	strb	r3, [r1, #2]
 8001904:	70cb      	strb	r3, [r1, #3]
  tp->mtxlist   = NULL;
 8001906:	219c      	movs	r1, #156	; 0x9c
 8001908:	0049      	lsls	r1, r1, #1
 800190a:	5463      	strb	r3, [r4, r1]
 800190c:	0021      	movs	r1, r4
 800190e:	3139      	adds	r1, #57	; 0x39
 8001910:	31ff      	adds	r1, #255	; 0xff
 8001912:	704b      	strb	r3, [r1, #1]
 8001914:	708b      	strb	r3, [r1, #2]
 8001916:	70cb      	strb	r3, [r1, #3]
  tp->epending  = (eventmask_t)0;
 8001918:	219a      	movs	r1, #154	; 0x9a
 800191a:	0049      	lsls	r1, r1, #1
 800191c:	5463      	strb	r3, [r4, r1]
 800191e:	0021      	movs	r1, r4
 8001920:	3135      	adds	r1, #53	; 0x35
 8001922:	31ff      	adds	r1, #255	; 0xff
 8001924:	704b      	strb	r3, [r1, #1]
 8001926:	708b      	strb	r3, [r1, #2]
 8001928:	70cb      	strb	r3, [r1, #3]
  tp->refs      = (trefs_t)1;
 800192a:	2101      	movs	r1, #1
 800192c:	3323      	adds	r3, #35	; 0x23
 800192e:	33ff      	adds	r3, #255	; 0xff
 8001930:	54e1      	strb	r1, [r4, r3]
  tp->name      = name;
 8001932:	4b2c      	ldr	r3, [pc, #176]	; (80019e4 <main+0x604>)
 8001934:	3118      	adds	r1, #24
 8001936:	0018      	movs	r0, r3
 8001938:	31ff      	adds	r1, #255	; 0xff
 800193a:	4010      	ands	r0, r2
 800193c:	5460      	strb	r0, [r4, r1]
 800193e:	0021      	movs	r1, r4
 8001940:	3119      	adds	r1, #25
 8001942:	31ff      	adds	r1, #255	; 0xff
 8001944:	0a18      	lsrs	r0, r3, #8
 8001946:	7048      	strb	r0, [r1, #1]
 8001948:	0c18      	lsrs	r0, r3, #16
 800194a:	0e1b      	lsrs	r3, r3, #24
 800194c:	7088      	strb	r0, [r1, #2]
 800194e:	70cb      	strb	r3, [r1, #3]
  REG_INSERT(tp);
 8001950:	0029      	movs	r1, r5
 8001952:	2388      	movs	r3, #136	; 0x88
 8001954:	4011      	ands	r1, r2
 8001956:	005b      	lsls	r3, r3, #1
 8001958:	54e1      	strb	r1, [r4, r3]
 800195a:	0023      	movs	r3, r4
 800195c:	3311      	adds	r3, #17
 800195e:	33ff      	adds	r3, #255	; 0xff
 8001960:	0a29      	lsrs	r1, r5, #8
 8001962:	7059      	strb	r1, [r3, #1]
 8001964:	0c29      	lsrs	r1, r5, #16
 8001966:	7099      	strb	r1, [r3, #2]
 8001968:	0e29      	lsrs	r1, r5, #24
 800196a:	70d9      	strb	r1, [r3, #3]
 800196c:	218a      	movs	r1, #138	; 0x8a
 800196e:	696b      	ldr	r3, [r5, #20]
 8001970:	0049      	lsls	r1, r1, #1
 8001972:	5463      	strb	r3, [r4, r1]
 8001974:	0021      	movs	r1, r4
 8001976:	3115      	adds	r1, #21
 8001978:	31ff      	adds	r1, #255	; 0xff
 800197a:	0a18      	lsrs	r0, r3, #8
 800197c:	7048      	strb	r0, [r1, #1]
 800197e:	0c18      	lsrs	r0, r3, #16
 8001980:	7088      	strb	r0, [r1, #2]
 8001982:	0e18      	lsrs	r0, r3, #24
 8001984:	70c8      	strb	r0, [r1, #3]
 8001986:	4818      	ldr	r0, [pc, #96]	; (80019e8 <main+0x608>)
  tlp->next = (thread_t *)tlp;
 8001988:	2194      	movs	r1, #148	; 0x94
 800198a:	6118      	str	r0, [r3, #16]
 800198c:	4b17      	ldr	r3, [pc, #92]	; (80019ec <main+0x60c>)
 800198e:	6168      	str	r0, [r5, #20]
 8001990:	001d      	movs	r5, r3
 8001992:	0049      	lsls	r1, r1, #1
 8001994:	4015      	ands	r5, r2
 8001996:	5465      	strb	r5, [r4, r1]
 8001998:	0a19      	lsrs	r1, r3, #8
 800199a:	7059      	strb	r1, [r3, #1]
 800199c:	0c19      	lsrs	r1, r3, #16
 800199e:	7099      	strb	r1, [r3, #2]
 80019a0:	0e19      	lsrs	r1, r3, #24
 80019a2:	70d9      	strb	r1, [r3, #3]
  tqp->next = (thread_t *)tqp;
 80019a4:	4b12      	ldr	r3, [pc, #72]	; (80019f0 <main+0x610>)
 80019a6:	2196      	movs	r1, #150	; 0x96
 80019a8:	001e      	movs	r6, r3
 80019aa:	0049      	lsls	r1, r1, #1
 80019ac:	4016      	ands	r6, r2
 80019ae:	5466      	strb	r6, [r4, r1]
 80019b0:	0a1d      	lsrs	r5, r3, #8
 80019b2:	0c19      	lsrs	r1, r3, #16
 80019b4:	4015      	ands	r5, r2
 80019b6:	400a      	ands	r2, r1
 80019b8:	0e19      	lsrs	r1, r3, #24
 80019ba:	709a      	strb	r2, [r3, #2]
 80019bc:	70d9      	strb	r1, [r3, #3]
 80019be:	705d      	strb	r5, [r3, #1]
  tqp->prev = (thread_t *)tqp;
 80019c0:	2398      	movs	r3, #152	; 0x98
 80019c2:	005b      	lsls	r3, r3, #1
 80019c4:	54e6      	strb	r6, [r4, r3]
 80019c6:	18e4      	adds	r4, r4, r3
 80019c8:	70a2      	strb	r2, [r4, #2]
 80019ca:	70e1      	strb	r1, [r4, #3]
 80019cc:	7065      	strb	r5, [r4, #1]
  chSchWakeupS(tp, MSG_OK);
 80019ce:	f000 f8a7 	bl	8001b20 <chSchWakeupS.constprop.22>
  chSysUnlock();
 80019d2:	f7fe ff6d 	bl	80008b0 <chSysUnlock.lto_priv.24>
  halInit(); // http://chibios.sourceforge.net/html/group___h_a_l.html
  chSysInit(); // http://chibios.sourceforge.net/html/group__system.html

	chThdCreateStatic(pwmThread1, sizeof(pwmThread1_wa), NORMALPRIO, pwmThread1, NULL);
  while (true) {
    chThdSleepMilliseconds(500);
 80019d6:	4807      	ldr	r0, [pc, #28]	; (80019f4 <main+0x614>)
 80019d8:	f7ff f9f2 	bl	8000dc0 <chThdSleep>
 80019dc:	e7fb      	b.n	80019d6 <main+0x5f6>
 80019de:	46c0      	nop			; (mov r8, r8)
 80019e0:	08001add 	.word	0x08001add
 80019e4:	080021d0 	.word	0x080021d0
 80019e8:	08001b01 	.word	0x08001b01
 80019ec:	08001b29 	.word	0x08001b29
 80019f0:	08001b2d 	.word	0x08001b2d
 80019f4:	00001388 	.word	0x00001388
	...

08001a00 <pwmThread1>:
static THD_FUNCTION(pwmThread1, arg) {
 8001a00:	b570      	push	{r4, r5, r6, lr}
 * @api
 */
static inline void chRegSetThreadName(const char *name) {

#if CH_CFG_USE_REGISTRY == TRUE
  ch.rlist.current->name = name;
 8001a02:	4d39      	ldr	r5, [pc, #228]	; (8001ae8 <pwmThread1+0xe8>)
 8001a04:	4a39      	ldr	r2, [pc, #228]	; (8001aec <pwmThread1+0xec>)
 8001a06:	69ab      	ldr	r3, [r5, #24]
 8001a08:	619a      	str	r2, [r3, #24]
 8001a0a:	2320      	movs	r3, #32
 8001a0c:	f383 8811 	msr	BASEPRI, r3
 8001a10:	f7fe ff66 	bl	80008e0 <_dbg_check_lock>
void pwmStart(PWMDriver *pwmp, const PWMConfig *config) {

  osalDbgCheck((pwmp != NULL) && (config != NULL));

  osalSysLock();
  osalDbgAssert((pwmp->state == PWM_STOP) || (pwmp->state == PWM_READY),
 8001a14:	4c36      	ldr	r4, [pc, #216]	; (8001af0 <pwmThread1+0xf0>)
 8001a16:	7823      	ldrb	r3, [r4, #0]
 8001a18:	3b01      	subs	r3, #1
 8001a1a:	2b01      	cmp	r3, #1
 8001a1c:	d902      	bls.n	8001a24 <pwmThread1+0x24>
 8001a1e:	4835      	ldr	r0, [pc, #212]	; (8001af4 <pwmThread1+0xf4>)
 8001a20:	f7fe fdce 	bl	80005c0 <chSysHalt>
                "invalid state");
  pwmp->config = config;
 8001a24:	4b34      	ldr	r3, [pc, #208]	; (8001af8 <pwmThread1+0xf8>)
 8001a26:	6063      	str	r3, [r4, #4]
  pwmp->period = config->period;
 8001a28:	685b      	ldr	r3, [r3, #4]
 8001a2a:	60a3      	str	r3, [r4, #8]
  pwm_lld_start(pwmp);
 8001a2c:	f000 f8c0 	bl	8001bb0 <pwm_lld_start.constprop.10>
  pwmp->enabled = 0;
 8001a30:	2300      	movs	r3, #0
 8001a32:	60e3      	str	r3, [r4, #12]
  pwmp->state = PWM_READY;
 8001a34:	3302      	adds	r3, #2
 8001a36:	7023      	strb	r3, [r4, #0]
  _dbg_check_unlock();
 8001a38:	f7fe ff22 	bl	8000880 <_dbg_check_unlock>
  chDbgAssert((ch.rlist.queue.next == (thread_t *)&ch.rlist.queue) ||
 8001a3c:	682b      	ldr	r3, [r5, #0]
 8001a3e:	42ab      	cmp	r3, r5
 8001a40:	d004      	beq.n	8001a4c <pwmThread1+0x4c>
 8001a42:	69aa      	ldr	r2, [r5, #24]
 8001a44:	689b      	ldr	r3, [r3, #8]
 8001a46:	6892      	ldr	r2, [r2, #8]
 8001a48:	429a      	cmp	r2, r3
 8001a4a:	d34a      	bcc.n	8001ae2 <pwmThread1+0xe2>
 8001a4c:	2600      	movs	r6, #0
 8001a4e:	f386 8811 	msr	BASEPRI, r6
  pwmEnablePeriodicNotification(&PWMD1);
 8001a52:	f000 fa4d 	bl	8001ef0 <pwmEnablePeriodicNotification.constprop.5>
  palSetPadMode(GPIOA, 8, PAL_MODE_ALTERNATE(1));
 8001a56:	f000 f943 	bl	8001ce0 <_pal_lld_setgroupmode.constprop.2>
  chThdSleepMilliseconds(2000);
 8001a5a:	4828      	ldr	r0, [pc, #160]	; (8001afc <pwmThread1+0xfc>)
 8001a5c:	f7ff f9b0 	bl	8000dc0 <chThdSleep>
  pwmEnableChannel(&PWMD1, 0, PWM_PERCENTAGE_TO_WIDTH(&PWMD1, 7500));
 8001a60:	68a3      	ldr	r3, [r4, #8]
 8001a62:	4827      	ldr	r0, [pc, #156]	; (8001b00 <pwmThread1+0x100>)
 8001a64:	4927      	ldr	r1, [pc, #156]	; (8001b04 <pwmThread1+0x104>)
 8001a66:	4358      	muls	r0, r3
 8001a68:	f7fe fc2e 	bl	80002c8 <__udivsi3>
 8001a6c:	f000 fa08 	bl	8001e80 <pwmEnableChannel.constprop.7>
  pwmEnableChannelNotification(&PWMD1, 0);
 8001a70:	f000 f9c6 	bl	8001e00 <pwmEnableChannelNotification.constprop.3>
  chThdSleepMilliseconds(5000);
 8001a74:	4824      	ldr	r0, [pc, #144]	; (8001b08 <pwmThread1+0x108>)
 8001a76:	f7ff f9a3 	bl	8000dc0 <chThdSleep>
 8001a7a:	2320      	movs	r3, #32
 8001a7c:	f383 8811 	msr	BASEPRI, r3
  _dbg_check_lock();
 8001a80:	f7fe ff2e 	bl	80008e0 <_dbg_check_lock>
  osalDbgAssert((pwmp->state == PWM_STOP) || (pwmp->state == PWM_READY),
 8001a84:	7823      	ldrb	r3, [r4, #0]
 8001a86:	3b01      	subs	r3, #1
 8001a88:	2b01      	cmp	r3, #1
 8001a8a:	d8c8      	bhi.n	8001a1e <pwmThread1+0x1e>
  pwmp->config = config;
 8001a8c:	4b1f      	ldr	r3, [pc, #124]	; (8001b0c <pwmThread1+0x10c>)
 8001a8e:	6063      	str	r3, [r4, #4]
  pwmp->period = config->period;
 8001a90:	685b      	ldr	r3, [r3, #4]
 8001a92:	60a3      	str	r3, [r4, #8]
  pwm_lld_start(pwmp);
 8001a94:	f000 f88c 	bl	8001bb0 <pwm_lld_start.constprop.10>
  pwmp->state = PWM_READY;
 8001a98:	2302      	movs	r3, #2
  pwmp->enabled = 0;
 8001a9a:	60e6      	str	r6, [r4, #12]
  pwmp->state = PWM_READY;
 8001a9c:	7023      	strb	r3, [r4, #0]
  _dbg_check_unlock();
 8001a9e:	f7fe feef 	bl	8000880 <_dbg_check_unlock>
  chDbgAssert((ch.rlist.queue.next == (thread_t *)&ch.rlist.queue) ||
 8001aa2:	682b      	ldr	r3, [r5, #0]
 8001aa4:	42ab      	cmp	r3, r5
 8001aa6:	d004      	beq.n	8001ab2 <pwmThread1+0xb2>
 8001aa8:	69aa      	ldr	r2, [r5, #24]
 8001aaa:	689b      	ldr	r3, [r3, #8]
 8001aac:	6892      	ldr	r2, [r2, #8]
 8001aae:	429a      	cmp	r2, r3
 8001ab0:	d317      	bcc.n	8001ae2 <pwmThread1+0xe2>
 8001ab2:	2300      	movs	r3, #0
 8001ab4:	f383 8811 	msr	BASEPRI, r3
  pwmEnablePeriodicNotification(&PWMD1);
 8001ab8:	f000 fa1a 	bl	8001ef0 <pwmEnablePeriodicNotification.constprop.5>
  palSetPadMode(GPIOA, 8, PAL_MODE_ALTERNATE(1));
 8001abc:	f000 f910 	bl	8001ce0 <_pal_lld_setgroupmode.constprop.2>
  chThdSleepMilliseconds(2000);
 8001ac0:	480e      	ldr	r0, [pc, #56]	; (8001afc <pwmThread1+0xfc>)
 8001ac2:	f7ff f97d 	bl	8000dc0 <chThdSleep>
  pwmEnableChannel(&PWMD1, 0, PWM_PERCENTAGE_TO_WIDTH(&PWMD1, 7500));
 8001ac6:	68a3      	ldr	r3, [r4, #8]
 8001ac8:	480d      	ldr	r0, [pc, #52]	; (8001b00 <pwmThread1+0x100>)
 8001aca:	490e      	ldr	r1, [pc, #56]	; (8001b04 <pwmThread1+0x104>)
 8001acc:	4358      	muls	r0, r3
 8001ace:	f7fe fbfb 	bl	80002c8 <__udivsi3>
 8001ad2:	f000 f9d5 	bl	8001e80 <pwmEnableChannel.constprop.7>
  pwmEnableChannelNotification(&PWMD1, 0);
 8001ad6:	f000 f993 	bl	8001e00 <pwmEnableChannelNotification.constprop.3>
  chThdSleepMilliseconds(5000);
 8001ada:	480b      	ldr	r0, [pc, #44]	; (8001b08 <pwmThread1+0x108>)
 8001adc:	f7ff f970 	bl	8000dc0 <chThdSleep>
}
 8001ae0:	bd70      	pop	{r4, r5, r6, pc}
 8001ae2:	480b      	ldr	r0, [pc, #44]	; (8001b10 <pwmThread1+0x110>)
 8001ae4:	f7fe fd6c 	bl	80005c0 <chSysHalt>
 8001ae8:	2000059c 	.word	0x2000059c
 8001aec:	080021d8 	.word	0x080021d8
 8001af0:	20000580 	.word	0x20000580
 8001af4:	08002184 	.word	0x08002184
 8001af8:	20000400 	.word	0x20000400
 8001afc:	00004e20 	.word	0x00004e20
 8001b00:	00001d4c 	.word	0x00001d4c
 8001b04:	00002710 	.word	0x00002710
 8001b08:	0000c350 	.word	0x0000c350
 8001b0c:	20000434 	.word	0x20000434
 8001b10:	080021dc 	.word	0x080021dc
	...

08001b20 <chSchWakeupS.constprop.22>:
void chSchWakeupS(thread_t *ntp, msg_t msg) {
 8001b20:	b570      	push	{r4, r5, r6, lr}
  thread_t *otp = currp;
 8001b22:	4c1a      	ldr	r4, [pc, #104]	; (8001b8c <chSchWakeupS.constprop.22+0x6c>)
void chSchWakeupS(thread_t *ntp, msg_t msg) {
 8001b24:	0005      	movs	r5, r0
  chDbgCheckClassS();
 8001b26:	f7fe fd63 	bl	80005f0 <chDbgCheckClassS>
  chDbgAssert((ch.rlist.queue.next == (thread_t *)&ch.rlist.queue) ||
 8001b2a:	6823      	ldr	r3, [r4, #0]
  thread_t *otp = currp;
 8001b2c:	69a6      	ldr	r6, [r4, #24]
  chDbgAssert((ch.rlist.queue.next == (thread_t *)&ch.rlist.queue) ||
 8001b2e:	42a3      	cmp	r3, r4
 8001b30:	d003      	beq.n	8001b3a <chSchWakeupS.constprop.22+0x1a>
 8001b32:	689b      	ldr	r3, [r3, #8]
 8001b34:	68b2      	ldr	r2, [r6, #8]
 8001b36:	429a      	cmp	r2, r3
 8001b38:	d321      	bcc.n	8001b7e <chSchWakeupS.constprop.22+0x5e>
  ntp->u.rdymsg = msg;
 8001b3a:	2300      	movs	r3, #0
 8001b3c:	626b      	str	r3, [r5, #36]	; 0x24
  if (ntp->prio <= otp->prio) {
 8001b3e:	68b2      	ldr	r2, [r6, #8]
 8001b40:	68ab      	ldr	r3, [r5, #8]
 8001b42:	4293      	cmp	r3, r2
 8001b44:	d917      	bls.n	8001b76 <chSchWakeupS.constprop.22+0x56>
    otp = chSchReadyI(otp);
 8001b46:	0030      	movs	r0, r6
 8001b48:	f7fe fdda 	bl	8000700 <chSchReadyI>
    ntp->state = CH_STATE_CURRENT;
 8001b4c:	2220      	movs	r2, #32
 8001b4e:	2301      	movs	r3, #1
 8001b50:	54ab      	strb	r3, [r5, r2]
  if ((ch.dbg.trace_buffer.suspended & CH_DBG_TRACE_MASK_SWITCH) == 0U) {
 8001b52:	8f22      	ldrh	r2, [r4, #56]	; 0x38
    otp = chSchReadyI(otp);
 8001b54:	0006      	movs	r6, r0
    currp = ntp;
 8001b56:	61a5      	str	r5, [r4, #24]
 8001b58:	421a      	tst	r2, r3
 8001b5a:	d101      	bne.n	8001b60 <chSchWakeupS.constprop.22+0x40>
 8001b5c:	f7fe fcd0 	bl	8000500 <_trace_switch.part.0>
  __ASM volatile ("MRS %0, psp\n"  : "=r" (result) );
 8001b60:	f3ef 8309 	mrs	r3, PSP
    chSysSwitch(ntp, otp);
 8001b64:	69f2      	ldr	r2, [r6, #28]
 8001b66:	3b24      	subs	r3, #36	; 0x24
 8001b68:	429a      	cmp	r2, r3
 8001b6a:	d80b      	bhi.n	8001b84 <chSchWakeupS.constprop.22+0x64>
 8001b6c:	0031      	movs	r1, r6
 8001b6e:	0028      	movs	r0, r5
 8001b70:	f7fe fb90 	bl	8000294 <_port_switch>
}
 8001b74:	bd70      	pop	{r4, r5, r6, pc}
    (void) chSchReadyI(ntp);
 8001b76:	0028      	movs	r0, r5
 8001b78:	f7fe fdc2 	bl	8000700 <chSchReadyI>
 8001b7c:	e7fa      	b.n	8001b74 <chSchWakeupS.constprop.22+0x54>
  chDbgAssert((ch.rlist.queue.next == (thread_t *)&ch.rlist.queue) ||
 8001b7e:	4804      	ldr	r0, [pc, #16]	; (8001b90 <chSchWakeupS.constprop.22+0x70>)
 8001b80:	f7fe fd1e 	bl	80005c0 <chSysHalt>
    chSysSwitch(ntp, otp);
 8001b84:	4803      	ldr	r0, [pc, #12]	; (8001b94 <chSchWakeupS.constprop.22+0x74>)
 8001b86:	f7fe fd1b 	bl	80005c0 <chSysHalt>
 8001b8a:	46c0      	nop			; (mov r8, r8)
 8001b8c:	2000059c 	.word	0x2000059c
 8001b90:	080021e8 	.word	0x080021e8
 8001b94:	080020a4 	.word	0x080020a4
	...

08001ba0 <chTMStartMeasurementX.constprop.17>:
  return DWT->CYCCNT;
 8001ba0:	4b01      	ldr	r3, [pc, #4]	; (8001ba8 <chTMStartMeasurementX.constprop.17+0x8>)
 8001ba2:	685b      	ldr	r3, [r3, #4]
  tmp->last = chSysGetRealtimeCounterX();
 8001ba4:	6083      	str	r3, [r0, #8]
}
 8001ba6:	4770      	bx	lr
 8001ba8:	e0001000 	.word	0xe0001000
 8001bac:	00000000 	.word	0x00000000

08001bb0 <pwm_lld_start.constprop.10>:
 *
 * @param[in] pwmp      pointer to a @p PWMDriver object
 *
 * @notapi
 */
void pwm_lld_start(PWMDriver *pwmp) {
 8001bb0:	b5f8      	push	{r3, r4, r5, r6, r7, lr}
  uint32_t psc;
  uint32_t ccer;

  if (pwmp->state == PWM_STOP) {
 8001bb2:	4c41      	ldr	r4, [pc, #260]	; (8001cb8 <pwm_lld_start.constprop.10+0x108>)
 8001bb4:	7823      	ldrb	r3, [r4, #0]
 8001bb6:	2b01      	cmp	r3, #1
 8001bb8:	d018      	beq.n	8001bec <pwm_lld_start.constprop.10+0x3c>
                       STM32_TIM_CCMR3_OC6M(6) | STM32_TIM_CCMR3_OC6PE;
#endif
  }
  else {
    /* Driver re-configuration scenario, it must be stopped first.*/
    pwmp->tim->CR1    = 0;                  /* Timer disabled.              */
 8001bba:	2200      	movs	r2, #0
 8001bbc:	69a3      	ldr	r3, [r4, #24]
 8001bbe:	6965      	ldr	r5, [r4, #20]
 8001bc0:	601a      	str	r2, [r3, #0]
    pwmp->tim->CCR[0] = 0;                  /* Comparator 1 disabled.       */
 8001bc2:	635a      	str	r2, [r3, #52]	; 0x34
    pwmp->tim->CCR[1] = 0;                  /* Comparator 2 disabled.       */
 8001bc4:	639a      	str	r2, [r3, #56]	; 0x38
    pwmp->tim->CCR[2] = 0;                  /* Comparator 3 disabled.       */
 8001bc6:	63da      	str	r2, [r3, #60]	; 0x3c
    pwmp->tim->CCR[3] = 0;                  /* Comparator 4 disabled.       */
 8001bc8:	641a      	str	r2, [r3, #64]	; 0x40
    if (pwmp->channels > 4) {
      pwmp->tim->CCXR[0] = 0;               /* Comparator 5 disabled.       */
      pwmp->tim->CCXR[1] = 0;               /* Comparator 6 disabled.       */
    }
#endif
    pwmp->tim->CNT  = 0;                    /* Counter reset to zero.       */
 8001bca:	625a      	str	r2, [r3, #36]	; 0x24
  }

  /* Timer configuration.*/
  psc = (pwmp->clock / pwmp->config->frequency) - 1;
 8001bcc:	6866      	ldr	r6, [r4, #4]
 8001bce:	0028      	movs	r0, r5
 8001bd0:	6837      	ldr	r7, [r6, #0]
 8001bd2:	0039      	movs	r1, r7
 8001bd4:	f7fe fb78 	bl	80002c8 <__udivsi3>
  osalDbgAssert((psc <= 0xFFFF) &&
 8001bd8:	4a38      	ldr	r2, [pc, #224]	; (8001cbc <pwm_lld_start.constprop.10+0x10c>)
  psc = (pwmp->clock / pwmp->config->frequency) - 1;
 8001bda:	1e43      	subs	r3, r0, #1
  osalDbgAssert((psc <= 0xFFFF) &&
 8001bdc:	4293      	cmp	r3, r2
 8001bde:	d802      	bhi.n	8001be6 <pwm_lld_start.constprop.10+0x36>
 8001be0:	4378      	muls	r0, r7
 8001be2:	42a8      	cmp	r0, r5
 8001be4:	d022      	beq.n	8001c2c <pwm_lld_start.constprop.10+0x7c>
 8001be6:	4836      	ldr	r0, [pc, #216]	; (8001cc0 <pwm_lld_start.constprop.10+0x110>)
 8001be8:	f7fe fcea 	bl	80005c0 <chSysHalt>
      rccEnableTIM1(FALSE);
 8001bec:	4a35      	ldr	r2, [pc, #212]	; (8001cc4 <pwm_lld_start.constprop.10+0x114>)
  NVIC->ICPR[n >> 5U] = 1U << (n & 0x1FU);
 8001bee:	2080      	movs	r0, #128	; 0x80
 8001bf0:	6c51      	ldr	r1, [r2, #68]	; 0x44
 8001bf2:	0480      	lsls	r0, r0, #18
 8001bf4:	4319      	orrs	r1, r3
 8001bf6:	6451      	str	r1, [r2, #68]	; 0x44
      rccResetTIM1();
 8001bf8:	6a51      	ldr	r1, [r2, #36]	; 0x24
      pwmp->clock = STM32_TIMCLK2;
 8001bfa:	4d33      	ldr	r5, [pc, #204]	; (8001cc8 <pwm_lld_start.constprop.10+0x118>)
      rccResetTIM1();
 8001bfc:	430b      	orrs	r3, r1
 8001bfe:	6253      	str	r3, [r2, #36]	; 0x24
 8001c00:	2300      	movs	r3, #0
 8001c02:	6253      	str	r3, [r2, #36]	; 0x24
  NVIC->IP[n] = NVIC_PRIORITY_MASK(prio);
 8001c04:	2270      	movs	r2, #112	; 0x70
 8001c06:	4b31      	ldr	r3, [pc, #196]	; (8001ccc <pwm_lld_start.constprop.10+0x11c>)
 8001c08:	4931      	ldr	r1, [pc, #196]	; (8001cd0 <pwm_lld_start.constprop.10+0x120>)
 8001c0a:	545a      	strb	r2, [r3, r1]
  NVIC->ICPR[n >> 5U] = 1U << (n & 0x1FU);
 8001c0c:	399a      	subs	r1, #154	; 0x9a
 8001c0e:	39ff      	subs	r1, #255	; 0xff
 8001c10:	5058      	str	r0, [r3, r1]
  NVIC->ISER[n >> 5U] = 1U << (n & 0x1FU);
 8001c12:	6018      	str	r0, [r3, #0]
  NVIC->IP[n] = NVIC_PRIORITY_MASK(prio);
 8001c14:	482f      	ldr	r0, [pc, #188]	; (8001cd4 <pwm_lld_start.constprop.10+0x124>)
 8001c16:	541a      	strb	r2, [r3, r0]
  NVIC->ICPR[n >> 5U] = 1U << (n & 0x1FU);
 8001c18:	2280      	movs	r2, #128	; 0x80
 8001c1a:	0512      	lsls	r2, r2, #20
 8001c1c:	505a      	str	r2, [r3, r1]
  NVIC->ISER[n >> 5U] = 1U << (n & 0x1FU);
 8001c1e:	601a      	str	r2, [r3, #0]
    pwmp->tim->CCMR1 = STM32_TIM_CCMR1_OC1M(6) | STM32_TIM_CCMR1_OC1PE |
 8001c20:	69a3      	ldr	r3, [r4, #24]
 8001c22:	4a2d      	ldr	r2, [pc, #180]	; (8001cd8 <pwm_lld_start.constprop.10+0x128>)
      pwmp->clock = STM32_TIMCLK2;
 8001c24:	6165      	str	r5, [r4, #20]
    pwmp->tim->CCMR1 = STM32_TIM_CCMR1_OC1M(6) | STM32_TIM_CCMR1_OC1PE |
 8001c26:	619a      	str	r2, [r3, #24]
    pwmp->tim->CCMR2 = STM32_TIM_CCMR2_OC3M(6) | STM32_TIM_CCMR2_OC3PE |
 8001c28:	61da      	str	r2, [r3, #28]
 8001c2a:	e7cf      	b.n	8001bcc <pwm_lld_start.constprop.10+0x1c>
  pwmp->tim->ARR  = pwmp->period - 1;
  pwmp->tim->CR2  = pwmp->config->cr2;

  /* Output enables and polarities setup.*/
  ccer = 0;
  switch (pwmp->config->channels[0].mode & PWM_OUTPUT_MASK) {
 8001c2c:	210f      	movs	r1, #15
  pwmp->tim->PSC  = psc;
 8001c2e:	69a2      	ldr	r2, [r4, #24]
 8001c30:	6293      	str	r3, [r2, #40]	; 0x28
  pwmp->tim->ARR  = pwmp->period - 1;
 8001c32:	68a3      	ldr	r3, [r4, #8]
 8001c34:	3b01      	subs	r3, #1
 8001c36:	62d3      	str	r3, [r2, #44]	; 0x2c
  pwmp->tim->CR2  = pwmp->config->cr2;
 8001c38:	6af3      	ldr	r3, [r6, #44]	; 0x2c
 8001c3a:	6053      	str	r3, [r2, #4]
  switch (pwmp->config->channels[0].mode & PWM_OUTPUT_MASK) {
 8001c3c:	68f3      	ldr	r3, [r6, #12]
 8001c3e:	4019      	ands	r1, r3
 8001c40:	2901      	cmp	r1, #1
 8001c42:	d037      	beq.n	8001cb4 <pwm_lld_start.constprop.10+0x104>
 8001c44:	2303      	movs	r3, #3
 8001c46:	2902      	cmp	r1, #2
 8001c48:	d000      	beq.n	8001c4c <pwm_lld_start.constprop.10+0x9c>
  ccer = 0;
 8001c4a:	2300      	movs	r3, #0
  case PWM_OUTPUT_ACTIVE_HIGH:
    ccer |= STM32_TIM_CCER_CC1E;
  default:
    ;
  }
  switch (pwmp->config->channels[1].mode & PWM_OUTPUT_MASK) {
 8001c4c:	210f      	movs	r1, #15
 8001c4e:	6970      	ldr	r0, [r6, #20]
 8001c50:	4001      	ands	r1, r0
 8001c52:	2901      	cmp	r1, #1
 8001c54:	d003      	beq.n	8001c5e <pwm_lld_start.constprop.10+0xae>
 8001c56:	2902      	cmp	r1, #2
 8001c58:	d103      	bne.n	8001c62 <pwm_lld_start.constprop.10+0xb2>
  case PWM_OUTPUT_ACTIVE_LOW:
    ccer |= STM32_TIM_CCER_CC2P;
 8001c5a:	311e      	adds	r1, #30
 8001c5c:	430b      	orrs	r3, r1
  case PWM_OUTPUT_ACTIVE_HIGH:
    ccer |= STM32_TIM_CCER_CC2E;
 8001c5e:	2110      	movs	r1, #16
 8001c60:	430b      	orrs	r3, r1
  default:
    ;
  }
  switch (pwmp->config->channels[2].mode & PWM_OUTPUT_MASK) {
 8001c62:	210f      	movs	r1, #15
 8001c64:	69f0      	ldr	r0, [r6, #28]
 8001c66:	4001      	ands	r1, r0
 8001c68:	2901      	cmp	r1, #1
 8001c6a:	d004      	beq.n	8001c76 <pwm_lld_start.constprop.10+0xc6>
 8001c6c:	2902      	cmp	r1, #2
 8001c6e:	d105      	bne.n	8001c7c <pwm_lld_start.constprop.10+0xcc>
  case PWM_OUTPUT_ACTIVE_LOW:
    ccer |= STM32_TIM_CCER_CC3P;
 8001c70:	31ff      	adds	r1, #255	; 0xff
 8001c72:	31ff      	adds	r1, #255	; 0xff
 8001c74:	430b      	orrs	r3, r1
  case PWM_OUTPUT_ACTIVE_HIGH:
    ccer |= STM32_TIM_CCER_CC3E;
 8001c76:	2180      	movs	r1, #128	; 0x80
 8001c78:	0049      	lsls	r1, r1, #1
 8001c7a:	430b      	orrs	r3, r1
  default:
    ;
  }
  switch (pwmp->config->channels[3].mode & PWM_OUTPUT_MASK) {
 8001c7c:	210f      	movs	r1, #15
 8001c7e:	6a70      	ldr	r0, [r6, #36]	; 0x24
 8001c80:	4001      	ands	r1, r0
 8001c82:	2901      	cmp	r1, #1
 8001c84:	d004      	beq.n	8001c90 <pwm_lld_start.constprop.10+0xe0>
 8001c86:	2902      	cmp	r1, #2
 8001c88:	d105      	bne.n	8001c96 <pwm_lld_start.constprop.10+0xe6>
  case PWM_OUTPUT_ACTIVE_LOW:
    ccer |= STM32_TIM_CCER_CC4P;
 8001c8a:	2180      	movs	r1, #128	; 0x80
 8001c8c:	0189      	lsls	r1, r1, #6
 8001c8e:	430b      	orrs	r3, r1
  case PWM_OUTPUT_ACTIVE_HIGH:
    ccer |= STM32_TIM_CCER_CC4E;
 8001c90:	2180      	movs	r1, #128	; 0x80
 8001c92:	0149      	lsls	r1, r1, #5
 8001c94:	430b      	orrs	r3, r1
      ;
    }
  }
#endif /* STM32_PWM_USE_ADVANCED*/

  pwmp->tim->CCER  = ccer;
 8001c96:	6213      	str	r3, [r2, #32]
  pwmp->tim->EGR   = STM32_TIM_EGR_UG;      /* Update event.                */
 8001c98:	2301      	movs	r3, #1
 8001c9a:	6153      	str	r3, [r2, #20]
  pwmp->tim->SR    = 0;                     /* Clear pending IRQs.          */
 8001c9c:	2300      	movs	r3, #0
  pwmp->tim->DIER  = pwmp->config->dier &   /* DMA-related DIER settings.   */
 8001c9e:	21ff      	movs	r1, #255	; 0xff
  pwmp->tim->SR    = 0;                     /* Clear pending IRQs.          */
 8001ca0:	6113      	str	r3, [r2, #16]
  pwmp->tim->DIER  = pwmp->config->dier &   /* DMA-related DIER settings.   */
 8001ca2:	6b33      	ldr	r3, [r6, #48]	; 0x30
 8001ca4:	438b      	bics	r3, r1
 8001ca6:	60d3      	str	r3, [r2, #12]
                     ~STM32_TIM_DIER_IRQ_MASK;
#if STM32_PWM_USE_TIM1 || STM32_PWM_USE_TIM8
#if STM32_PWM_USE_ADVANCED
  pwmp->tim->BDTR  = pwmp->config->bdtr | STM32_TIM_BDTR_MOE;
#else
  pwmp->tim->BDTR  = STM32_TIM_BDTR_MOE;
 8001ca8:	2380      	movs	r3, #128	; 0x80
 8001caa:	021b      	lsls	r3, r3, #8
 8001cac:	6453      	str	r3, [r2, #68]	; 0x44
#endif
#endif
  /* Timer configured and started.*/
  pwmp->tim->CR1   = STM32_TIM_CR1_ARPE | STM32_TIM_CR1_URS |
 8001cae:	2385      	movs	r3, #133	; 0x85
 8001cb0:	6013      	str	r3, [r2, #0]
                     STM32_TIM_CR1_CEN;
}
 8001cb2:	bdf8      	pop	{r3, r4, r5, r6, r7, pc}
  switch (pwmp->config->channels[0].mode & PWM_OUTPUT_MASK) {
 8001cb4:	2301      	movs	r3, #1
 8001cb6:	e7c9      	b.n	8001c4c <pwm_lld_start.constprop.10+0x9c>
 8001cb8:	20000580 	.word	0x20000580
 8001cbc:	0000ffff 	.word	0x0000ffff
 8001cc0:	080021f8 	.word	0x080021f8
 8001cc4:	40023800 	.word	0x40023800
 8001cc8:	0a037a00 	.word	0x0a037a00
 8001ccc:	e000e100 	.word	0xe000e100
 8001cd0:	00000319 	.word	0x00000319
 8001cd4:	0000031b 	.word	0x0000031b
 8001cd8:	00006868 	.word	0x00006868
 8001cdc:	00000000 	.word	0x00000000

08001ce0 <_pal_lld_setgroupmode.constprop.2>:
 * @param[in] mask      the group mask
 * @param[in] mode      the mode
 *
 * @notapi
 */
void _pal_lld_setgroupmode(ioportid_t port,
 8001ce0:	b5f0      	push	{r4, r5, r6, r7, lr}
                           ioportmask_t mask,
                           iomode_t mode) {

  uint32_t moder   = (mode & PAL_STM32_MODE_MASK) >> 0;
 8001ce2:	2302      	movs	r3, #2
void _pal_lld_setgroupmode(ioportid_t port,
 8001ce4:	4645      	mov	r5, r8
 8001ce6:	46de      	mov	lr, fp
 8001ce8:	4657      	mov	r7, sl
 8001cea:	464e      	mov	r6, r9
  uint32_t bit     = 0;
  while (true) {
    if ((mask & 1) != 0) {
      uint32_t altrmask, m1, m2, m4;

      altrmask = altr << ((bit & 7) * 4);
 8001cec:	2207      	movs	r2, #7
  uint32_t bit     = 0;
 8001cee:	2180      	movs	r1, #128	; 0x80
void _pal_lld_setgroupmode(ioportid_t port,
 8001cf0:	b5e0      	push	{r5, r6, r7, lr}
  uint32_t moder   = (mode & PAL_STM32_MODE_MASK) >> 0;
 8001cf2:	469b      	mov	fp, r3
    if ((mask & 1) != 0) {
 8001cf4:	2501      	movs	r5, #1
  uint32_t bit     = 0;
 8001cf6:	2300      	movs	r3, #0
      m1 = 1 << bit;
      m2 = 3 << (bit * 2);
 8001cf8:	2703      	movs	r7, #3
      altrmask = altr << ((bit & 7) * 4);
 8001cfa:	4690      	mov	r8, r2
      m4 = 15 << ((bit & 7) * 4);
 8001cfc:	3208      	adds	r2, #8
 8001cfe:	4694      	mov	ip, r2
      port->OTYPER  = (port->OTYPER & ~m1) | otyper;
 8001d00:	4a1f      	ldr	r2, [pc, #124]	; (8001d80 <_pal_lld_setgroupmode.constprop.2+0xa0>)
  uint32_t bit     = 0;
 8001d02:	0049      	lsls	r1, r1, #1
          port->AFRL = (port->AFRL & ~m4) | altrmask;
        else
          port->AFRH = (port->AFRH & ~m4) | altrmask;
      }
    }
    mask >>= 1;
 8001d04:	0849      	lsrs	r1, r1, #1
    if (!mask)
 8001d06:	2b08      	cmp	r3, #8
 8001d08:	d02d      	beq.n	8001d66 <_pal_lld_setgroupmode.constprop.2+0x86>
      return;
    otyper <<= 1;
    ospeedr <<= 2;
    pupdr <<= 2;
    moder <<= 2;
 8001d0a:	4658      	mov	r0, fp
 8001d0c:	0080      	lsls	r0, r0, #2
 8001d0e:	4683      	mov	fp, r0
    bit++;
 8001d10:	3301      	adds	r3, #1
    if ((mask & 1) != 0) {
 8001d12:	420d      	tst	r5, r1
 8001d14:	d0f6      	beq.n	8001d04 <_pal_lld_setgroupmode.constprop.2+0x24>
      altrmask = altr << ((bit & 7) * 4);
 8001d16:	4640      	mov	r0, r8
 8001d18:	002e      	movs	r6, r5
 8001d1a:	4018      	ands	r0, r3
 8001d1c:	0080      	lsls	r0, r0, #2
 8001d1e:	4086      	lsls	r6, r0
 8001d20:	46b1      	mov	r9, r6
      m4 = 15 << ((bit & 7) * 4);
 8001d22:	4666      	mov	r6, ip
 8001d24:	4086      	lsls	r6, r0
 8001d26:	46b2      	mov	sl, r6
      m1 = 1 << bit;
 8001d28:	002e      	movs	r6, r5
 8001d2a:	409e      	lsls	r6, r3
      m2 = 3 << (bit * 2);
 8001d2c:	003c      	movs	r4, r7
      port->OTYPER  = (port->OTYPER & ~m1) | otyper;
 8001d2e:	6850      	ldr	r0, [r2, #4]
 8001d30:	43b0      	bics	r0, r6
 8001d32:	6050      	str	r0, [r2, #4]
      m2 = 3 << (bit * 2);
 8001d34:	0058      	lsls	r0, r3, #1
 8001d36:	4084      	lsls	r4, r0
      port->OSPEEDR = (port->OSPEEDR & ~m2) | ospeedr;
 8001d38:	43e0      	mvns	r0, r4
 8001d3a:	6896      	ldr	r6, [r2, #8]
 8001d3c:	4006      	ands	r6, r0
 8001d3e:	6096      	str	r6, [r2, #8]
      port->PUPDR   = (port->PUPDR & ~m2) | pupdr;
 8001d40:	68d6      	ldr	r6, [r2, #12]
 8001d42:	4006      	ands	r6, r0
 8001d44:	60d6      	str	r6, [r2, #12]
        if (bit < 8)
 8001d46:	2b08      	cmp	r3, #8
 8001d48:	d013      	beq.n	8001d72 <_pal_lld_setgroupmode.constprop.2+0x92>
          port->AFRL = (port->AFRL & ~m4) | altrmask;
 8001d4a:	4654      	mov	r4, sl
 8001d4c:	6a16      	ldr	r6, [r2, #32]
 8001d4e:	43a6      	bics	r6, r4
 8001d50:	464c      	mov	r4, r9
 8001d52:	4326      	orrs	r6, r4
 8001d54:	6216      	str	r6, [r2, #32]
        port->MODER   = (port->MODER & ~m2) | moder;
 8001d56:	465c      	mov	r4, fp
 8001d58:	6816      	ldr	r6, [r2, #0]
    mask >>= 1;
 8001d5a:	0849      	lsrs	r1, r1, #1
        port->MODER   = (port->MODER & ~m2) | moder;
 8001d5c:	4030      	ands	r0, r6
 8001d5e:	4320      	orrs	r0, r4
 8001d60:	6010      	str	r0, [r2, #0]
    if (!mask)
 8001d62:	2b08      	cmp	r3, #8
 8001d64:	d1d1      	bne.n	8001d0a <_pal_lld_setgroupmode.constprop.2+0x2a>
  }
}
 8001d66:	bc3c      	pop	{r2, r3, r4, r5}
 8001d68:	4690      	mov	r8, r2
 8001d6a:	4699      	mov	r9, r3
 8001d6c:	46a2      	mov	sl, r4
 8001d6e:	46ab      	mov	fp, r5
 8001d70:	bdf0      	pop	{r4, r5, r6, r7, pc}
          port->AFRH = (port->AFRH & ~m4) | altrmask;
 8001d72:	4654      	mov	r4, sl
 8001d74:	6a56      	ldr	r6, [r2, #36]	; 0x24
 8001d76:	43a6      	bics	r6, r4
 8001d78:	464c      	mov	r4, r9
 8001d7a:	4326      	orrs	r6, r4
 8001d7c:	6256      	str	r6, [r2, #36]	; 0x24
 8001d7e:	e7ea      	b.n	8001d56 <_pal_lld_setgroupmode.constprop.2+0x76>
 8001d80:	40020000 	.word	0x40020000
	...

08001d90 <pwm_lld_serve_interrupt.constprop.0>:
 *
 * @param[in] pwmp      pointer to a @p PWMDriver object
 *
 * @notapi
 */
void pwm_lld_serve_interrupt(PWMDriver *pwmp) {
 8001d90:	b570      	push	{r4, r5, r6, lr}
  uint32_t sr;

  sr  = pwmp->tim->SR;
 8001d92:	4d19      	ldr	r5, [pc, #100]	; (8001df8 <pwm_lld_serve_interrupt.constprop.0+0x68>)
 8001d94:	69aa      	ldr	r2, [r5, #24]
 8001d96:	6913      	ldr	r3, [r2, #16]
  sr &= pwmp->tim->DIER & STM32_TIM_DIER_IRQ_MASK;
 8001d98:	68d4      	ldr	r4, [r2, #12]
 8001d9a:	401c      	ands	r4, r3
 8001d9c:	23ff      	movs	r3, #255	; 0xff
 8001d9e:	4023      	ands	r3, r4
  pwmp->tim->SR = ~sr;
 8001da0:	43db      	mvns	r3, r3
 8001da2:	6113      	str	r3, [r2, #16]
  if (((sr & STM32_TIM_SR_CC1IF) != 0) &&
 8001da4:	07a3      	lsls	r3, r4, #30
 8001da6:	d505      	bpl.n	8001db4 <pwm_lld_serve_interrupt.constprop.0+0x24>
      (pwmp->config->channels[0].callback != NULL))
 8001da8:	686b      	ldr	r3, [r5, #4]
 8001daa:	691b      	ldr	r3, [r3, #16]
  if (((sr & STM32_TIM_SR_CC1IF) != 0) &&
 8001dac:	2b00      	cmp	r3, #0
 8001dae:	d001      	beq.n	8001db4 <pwm_lld_serve_interrupt.constprop.0+0x24>
    pwmp->config->channels[0].callback(pwmp);
 8001db0:	0028      	movs	r0, r5
 8001db2:	4798      	blx	r3
  if (((sr & STM32_TIM_SR_CC2IF) != 0) &&
 8001db4:	0763      	lsls	r3, r4, #29
 8001db6:	d505      	bpl.n	8001dc4 <pwm_lld_serve_interrupt.constprop.0+0x34>
      (pwmp->config->channels[1].callback != NULL))
 8001db8:	686b      	ldr	r3, [r5, #4]
 8001dba:	699b      	ldr	r3, [r3, #24]
  if (((sr & STM32_TIM_SR_CC2IF) != 0) &&
 8001dbc:	2b00      	cmp	r3, #0
 8001dbe:	d001      	beq.n	8001dc4 <pwm_lld_serve_interrupt.constprop.0+0x34>
    pwmp->config->channels[1].callback(pwmp);
 8001dc0:	0028      	movs	r0, r5
 8001dc2:	4798      	blx	r3
  if (((sr & STM32_TIM_SR_CC3IF) != 0) &&
 8001dc4:	0723      	lsls	r3, r4, #28
 8001dc6:	d505      	bpl.n	8001dd4 <pwm_lld_serve_interrupt.constprop.0+0x44>
      (pwmp->config->channels[2].callback != NULL))
 8001dc8:	686b      	ldr	r3, [r5, #4]
 8001dca:	6a1b      	ldr	r3, [r3, #32]
  if (((sr & STM32_TIM_SR_CC3IF) != 0) &&
 8001dcc:	2b00      	cmp	r3, #0
 8001dce:	d001      	beq.n	8001dd4 <pwm_lld_serve_interrupt.constprop.0+0x44>
    pwmp->config->channels[2].callback(pwmp);
 8001dd0:	0028      	movs	r0, r5
 8001dd2:	4798      	blx	r3
  if (((sr & STM32_TIM_SR_CC4IF) != 0) &&
 8001dd4:	06e3      	lsls	r3, r4, #27
 8001dd6:	d505      	bpl.n	8001de4 <pwm_lld_serve_interrupt.constprop.0+0x54>
      (pwmp->config->channels[3].callback != NULL))
 8001dd8:	686b      	ldr	r3, [r5, #4]
 8001dda:	6a9b      	ldr	r3, [r3, #40]	; 0x28
  if (((sr & STM32_TIM_SR_CC4IF) != 0) &&
 8001ddc:	2b00      	cmp	r3, #0
 8001dde:	d001      	beq.n	8001de4 <pwm_lld_serve_interrupt.constprop.0+0x54>
    pwmp->config->channels[3].callback(pwmp);
 8001de0:	0028      	movs	r0, r5
 8001de2:	4798      	blx	r3
  if (((sr & STM32_TIM_SR_UIF) != 0) && (pwmp->config->callback != NULL))
 8001de4:	07e3      	lsls	r3, r4, #31
 8001de6:	d505      	bpl.n	8001df4 <pwm_lld_serve_interrupt.constprop.0+0x64>
 8001de8:	686b      	ldr	r3, [r5, #4]
 8001dea:	689b      	ldr	r3, [r3, #8]
 8001dec:	2b00      	cmp	r3, #0
 8001dee:	d001      	beq.n	8001df4 <pwm_lld_serve_interrupt.constprop.0+0x64>
    pwmp->config->callback(pwmp);
 8001df0:	0028      	movs	r0, r5
 8001df2:	4798      	blx	r3
}
 8001df4:	bd70      	pop	{r4, r5, r6, pc}
 8001df6:	46c0      	nop			; (mov r8, r8)
 8001df8:	20000580 	.word	0x20000580
 8001dfc:	00000000 	.word	0x00000000

08001e00 <pwmEnableChannelNotification.constprop.3>:
 * @param[in] pwmp      pointer to a @p PWMDriver object
 * @param[in] channel   PWM channel identifier (0...channels-1)
 *
 * @api
 */
void pwmEnableChannelNotification(PWMDriver *pwmp, pwmchannel_t channel) {
 8001e00:	b510      	push	{r4, lr}

  osalDbgCheck((pwmp != NULL) && (channel < pwmp->channels));
 8001e02:	4c18      	ldr	r4, [pc, #96]	; (8001e64 <pwmEnableChannelNotification.constprop.3+0x64>)
 8001e04:	7c23      	ldrb	r3, [r4, #16]
 8001e06:	2b00      	cmp	r3, #0
 8001e08:	d007      	beq.n	8001e1a <pwmEnableChannelNotification.constprop.3+0x1a>
  __ASM volatile ("MSR basepri, %0" : : "r" (value) : "memory");
 8001e0a:	2320      	movs	r3, #32
 8001e0c:	f383 8811 	msr	BASEPRI, r3
  _dbg_check_lock();
 8001e10:	f7fe fd66 	bl	80008e0 <_dbg_check_lock>

  osalSysLock();

  osalDbgAssert(pwmp->state == PWM_READY, "not ready");
 8001e14:	7823      	ldrb	r3, [r4, #0]
 8001e16:	2b02      	cmp	r3, #2
 8001e18:	d002      	beq.n	8001e20 <pwmEnableChannelNotification.constprop.3+0x20>
  osalDbgCheck((pwmp != NULL) && (channel < pwmp->channels));
 8001e1a:	4813      	ldr	r0, [pc, #76]	; (8001e68 <pwmEnableChannelNotification.constprop.3+0x68>)
 8001e1c:	f7fe fbd0 	bl	80005c0 <chSysHalt>
  osalDbgAssert((pwmp->enabled & ((pwmchnmsk_t)1U << (pwmchnmsk_t)channel)) != 0U,
 8001e20:	68e2      	ldr	r2, [r4, #12]
 8001e22:	07d2      	lsls	r2, r2, #31
 8001e24:	d5f9      	bpl.n	8001e1a <pwmEnableChannelNotification.constprop.3+0x1a>
                "channel not enabled");
  osalDbgAssert(pwmp->config->channels[channel].callback != NULL,
 8001e26:	6862      	ldr	r2, [r4, #4]
 8001e28:	6912      	ldr	r2, [r2, #16]
 8001e2a:	2a00      	cmp	r2, #0
 8001e2c:	d0f5      	beq.n	8001e1a <pwmEnableChannelNotification.constprop.3+0x1a>
  uint32_t dier = pwmp->tim->DIER;
 8001e2e:	69a1      	ldr	r1, [r4, #24]
 8001e30:	68ca      	ldr	r2, [r1, #12]
  if ((dier & (2 << channel)) == 0) {
 8001e32:	4213      	tst	r3, r2
 8001e34:	d104      	bne.n	8001e40 <pwmEnableChannelNotification.constprop.3+0x40>
    pwmp->tim->DIER = dier | (2 << channel);
 8001e36:	4313      	orrs	r3, r2
 8001e38:	60cb      	str	r3, [r1, #12]
    pwmp->tim->SR   = ~(2 << channel);
 8001e3a:	2303      	movs	r3, #3
 8001e3c:	425b      	negs	r3, r3
 8001e3e:	610b      	str	r3, [r1, #16]
  _dbg_check_unlock();
 8001e40:	f7fe fd1e 	bl	8000880 <_dbg_check_unlock>
  chDbgAssert((ch.rlist.queue.next == (thread_t *)&ch.rlist.queue) ||
 8001e44:	4b09      	ldr	r3, [pc, #36]	; (8001e6c <pwmEnableChannelNotification.constprop.3+0x6c>)
 8001e46:	681a      	ldr	r2, [r3, #0]
 8001e48:	429a      	cmp	r2, r3
 8001e4a:	d004      	beq.n	8001e56 <pwmEnableChannelNotification.constprop.3+0x56>
 8001e4c:	699b      	ldr	r3, [r3, #24]
 8001e4e:	6899      	ldr	r1, [r3, #8]
 8001e50:	6893      	ldr	r3, [r2, #8]
 8001e52:	4299      	cmp	r1, r3
 8001e54:	d303      	bcc.n	8001e5e <pwmEnableChannelNotification.constprop.3+0x5e>
 8001e56:	2300      	movs	r3, #0
 8001e58:	f383 8811 	msr	BASEPRI, r3
                "undefined channel callback");

  pwmEnableChannelNotificationI(pwmp, channel);

  osalSysUnlock();
}
 8001e5c:	bd10      	pop	{r4, pc}
 8001e5e:	4804      	ldr	r0, [pc, #16]	; (8001e70 <pwmEnableChannelNotification.constprop.3+0x70>)
 8001e60:	f7fe fbae 	bl	80005c0 <chSysHalt>
 8001e64:	20000580 	.word	0x20000580
 8001e68:	0800223c 	.word	0x0800223c
 8001e6c:	2000059c 	.word	0x2000059c
 8001e70:	080021dc 	.word	0x080021dc
	...

08001e80 <pwmEnableChannel.constprop.7>:
void pwmEnableChannel(PWMDriver *pwmp,
 8001e80:	b570      	push	{r4, r5, r6, lr}
  osalDbgCheck((pwmp != NULL) && (channel < pwmp->channels));
 8001e82:	4c14      	ldr	r4, [pc, #80]	; (8001ed4 <pwmEnableChannel.constprop.7+0x54>)
void pwmEnableChannel(PWMDriver *pwmp,
 8001e84:	0005      	movs	r5, r0
  osalDbgCheck((pwmp != NULL) && (channel < pwmp->channels));
 8001e86:	7c23      	ldrb	r3, [r4, #16]
 8001e88:	2b00      	cmp	r3, #0
 8001e8a:	d007      	beq.n	8001e9c <pwmEnableChannel.constprop.7+0x1c>
 8001e8c:	2320      	movs	r3, #32
 8001e8e:	f383 8811 	msr	BASEPRI, r3
  _dbg_check_lock();
 8001e92:	f7fe fd25 	bl	80008e0 <_dbg_check_lock>
  osalDbgAssert(pwmp->state == PWM_READY, "not ready");
 8001e96:	7823      	ldrb	r3, [r4, #0]
 8001e98:	2b02      	cmp	r3, #2
 8001e9a:	d002      	beq.n	8001ea2 <pwmEnableChannel.constprop.7+0x22>
  osalDbgCheck((pwmp != NULL) && (channel < pwmp->channels));
 8001e9c:	480e      	ldr	r0, [pc, #56]	; (8001ed8 <pwmEnableChannel.constprop.7+0x58>)
 8001e9e:	f7fe fb8f 	bl	80005c0 <chSysHalt>
  pwmEnableChannelI(pwmp, channel, width);
 8001ea2:	68e2      	ldr	r2, [r4, #12]
 8001ea4:	3b01      	subs	r3, #1
 8001ea6:	4313      	orrs	r3, r2
 8001ea8:	60e3      	str	r3, [r4, #12]
  pwmp->tim->CCR[channel] = width;
 8001eaa:	69a3      	ldr	r3, [r4, #24]
 8001eac:	635d      	str	r5, [r3, #52]	; 0x34
  _dbg_check_unlock();
 8001eae:	f7fe fce7 	bl	8000880 <_dbg_check_unlock>
  chDbgAssert((ch.rlist.queue.next == (thread_t *)&ch.rlist.queue) ||
 8001eb2:	4b0a      	ldr	r3, [pc, #40]	; (8001edc <pwmEnableChannel.constprop.7+0x5c>)
 8001eb4:	681a      	ldr	r2, [r3, #0]
 8001eb6:	429a      	cmp	r2, r3
 8001eb8:	d004      	beq.n	8001ec4 <pwmEnableChannel.constprop.7+0x44>
 8001eba:	699b      	ldr	r3, [r3, #24]
 8001ebc:	6899      	ldr	r1, [r3, #8]
 8001ebe:	6893      	ldr	r3, [r2, #8]
 8001ec0:	4299      	cmp	r1, r3
 8001ec2:	d303      	bcc.n	8001ecc <pwmEnableChannel.constprop.7+0x4c>
 8001ec4:	2300      	movs	r3, #0
 8001ec6:	f383 8811 	msr	BASEPRI, r3
}
 8001eca:	bd70      	pop	{r4, r5, r6, pc}
 8001ecc:	4804      	ldr	r0, [pc, #16]	; (8001ee0 <pwmEnableChannel.constprop.7+0x60>)
 8001ece:	f7fe fb77 	bl	80005c0 <chSysHalt>
 8001ed2:	46c0      	nop			; (mov r8, r8)
 8001ed4:	20000580 	.word	0x20000580
 8001ed8:	08002208 	.word	0x08002208
 8001edc:	2000059c 	.word	0x2000059c
 8001ee0:	080021dc 	.word	0x080021dc
	...

08001ef0 <pwmEnablePeriodicNotification.constprop.5>:
void pwmEnablePeriodicNotification(PWMDriver *pwmp) {
 8001ef0:	b510      	push	{r4, lr}
 8001ef2:	2320      	movs	r3, #32
 8001ef4:	f383 8811 	msr	BASEPRI, r3
  _dbg_check_lock();
 8001ef8:	f7fe fcf2 	bl	80008e0 <_dbg_check_lock>
  osalDbgAssert(pwmp->state == PWM_READY, "not ready");
 8001efc:	4b13      	ldr	r3, [pc, #76]	; (8001f4c <pwmEnablePeriodicNotification.constprop.5+0x5c>)
 8001efe:	781a      	ldrb	r2, [r3, #0]
 8001f00:	2a02      	cmp	r2, #2
 8001f02:	d002      	beq.n	8001f0a <pwmEnablePeriodicNotification.constprop.5+0x1a>
 8001f04:	4812      	ldr	r0, [pc, #72]	; (8001f50 <pwmEnablePeriodicNotification.constprop.5+0x60>)
 8001f06:	f7fe fb5b 	bl	80005c0 <chSysHalt>
  osalDbgAssert(pwmp->config->callback != NULL, "undefined periodic callback");
 8001f0a:	685a      	ldr	r2, [r3, #4]
 8001f0c:	6892      	ldr	r2, [r2, #8]
 8001f0e:	2a00      	cmp	r2, #0
 8001f10:	d0f8      	beq.n	8001f04 <pwmEnablePeriodicNotification.constprop.5+0x14>
  uint32_t dier = pwmp->tim->DIER;
 8001f12:	699a      	ldr	r2, [r3, #24]
  if ((dier & STM32_TIM_DIER_UIE) == 0) {
 8001f14:	2301      	movs	r3, #1
  uint32_t dier = pwmp->tim->DIER;
 8001f16:	68d1      	ldr	r1, [r2, #12]
  if ((dier & STM32_TIM_DIER_UIE) == 0) {
 8001f18:	420b      	tst	r3, r1
 8001f1a:	d104      	bne.n	8001f26 <pwmEnablePeriodicNotification.constprop.5+0x36>
    pwmp->tim->DIER = dier | STM32_TIM_DIER_UIE;
 8001f1c:	4319      	orrs	r1, r3
 8001f1e:	60d1      	str	r1, [r2, #12]
    pwmp->tim->SR &= STM32_TIM_SR_UIF;
 8001f20:	6911      	ldr	r1, [r2, #16]
 8001f22:	400b      	ands	r3, r1
 8001f24:	6113      	str	r3, [r2, #16]
  _dbg_check_unlock();
 8001f26:	f7fe fcab 	bl	8000880 <_dbg_check_unlock>
  chDbgAssert((ch.rlist.queue.next == (thread_t *)&ch.rlist.queue) ||
 8001f2a:	4b0a      	ldr	r3, [pc, #40]	; (8001f54 <pwmEnablePeriodicNotification.constprop.5+0x64>)
 8001f2c:	681a      	ldr	r2, [r3, #0]
 8001f2e:	429a      	cmp	r2, r3
 8001f30:	d004      	beq.n	8001f3c <pwmEnablePeriodicNotification.constprop.5+0x4c>
 8001f32:	699b      	ldr	r3, [r3, #24]
 8001f34:	6899      	ldr	r1, [r3, #8]
 8001f36:	6893      	ldr	r3, [r2, #8]
 8001f38:	4299      	cmp	r1, r3
 8001f3a:	d303      	bcc.n	8001f44 <pwmEnablePeriodicNotification.constprop.5+0x54>
 8001f3c:	2300      	movs	r3, #0
 8001f3e:	f383 8811 	msr	BASEPRI, r3
}
 8001f42:	bd10      	pop	{r4, pc}
 8001f44:	4804      	ldr	r0, [pc, #16]	; (8001f58 <pwmEnablePeriodicNotification.constprop.5+0x68>)
 8001f46:	f7fe fb3b 	bl	80005c0 <chSysHalt>
 8001f4a:	46c0      	nop			; (mov r8, r8)
 8001f4c:	20000580 	.word	0x20000580
 8001f50:	0800221c 	.word	0x0800221c
 8001f54:	2000059c 	.word	0x2000059c
 8001f58:	080021dc 	.word	0x080021dc
